
nucleo-H745-H7.elf:     file format elf32-littlearm


Disassembly of section .isr_vector:

08000000 <g_pfnVectors>:
 8000000:	24080000 	strcs	r0, [r8], #-0
 8000004:	08000ab1 	stmdaeq	r0, {r0, r4, r5, r7, r9, fp}
 8000008:	08000b01 	stmdaeq	r0, {r0, r8, r9, fp}
 800000c:	08000b01 	stmdaeq	r0, {r0, r8, r9, fp}
 8000010:	08000b01 	stmdaeq	r0, {r0, r8, r9, fp}
 8000014:	08000b01 	stmdaeq	r0, {r0, r8, r9, fp}
 8000018:	08000b01 	stmdaeq	r0, {r0, r8, r9, fp}
	...
 800002c:	08000b01 	stmdaeq	r0, {r0, r8, r9, fp}
 8000030:	08000b01 	stmdaeq	r0, {r0, r8, r9, fp}
 8000034:	00000000 	andeq	r0, r0, r0
 8000038:	08000b01 	stmdaeq	r0, {r0, r8, r9, fp}
 800003c:	08000b01 	stmdaeq	r0, {r0, r8, r9, fp}
 8000040:	08000b01 	stmdaeq	r0, {r0, r8, r9, fp}
 8000044:	08000b01 	stmdaeq	r0, {r0, r8, r9, fp}
 8000048:	08000b01 	stmdaeq	r0, {r0, r8, r9, fp}
 800004c:	08000b01 	stmdaeq	r0, {r0, r8, r9, fp}
 8000050:	08000b01 	stmdaeq	r0, {r0, r8, r9, fp}
 8000054:	08000b01 	stmdaeq	r0, {r0, r8, r9, fp}
 8000058:	08000b01 	stmdaeq	r0, {r0, r8, r9, fp}
 800005c:	08000b01 	stmdaeq	r0, {r0, r8, r9, fp}
 8000060:	08000b01 	stmdaeq	r0, {r0, r8, r9, fp}
 8000064:	08000b01 	stmdaeq	r0, {r0, r8, r9, fp}
 8000068:	08000b01 	stmdaeq	r0, {r0, r8, r9, fp}
 800006c:	08000b01 	stmdaeq	r0, {r0, r8, r9, fp}
 8000070:	08000b01 	stmdaeq	r0, {r0, r8, r9, fp}
 8000074:	08000b01 	stmdaeq	r0, {r0, r8, r9, fp}
 8000078:	08000b01 	stmdaeq	r0, {r0, r8, r9, fp}
 800007c:	08000b01 	stmdaeq	r0, {r0, r8, r9, fp}
 8000080:	08000b01 	stmdaeq	r0, {r0, r8, r9, fp}
 8000084:	08000b01 	stmdaeq	r0, {r0, r8, r9, fp}
 8000088:	08000b01 	stmdaeq	r0, {r0, r8, r9, fp}
 800008c:	08000b01 	stmdaeq	r0, {r0, r8, r9, fp}
 8000090:	08000b01 	stmdaeq	r0, {r0, r8, r9, fp}
 8000094:	08000b01 	stmdaeq	r0, {r0, r8, r9, fp}
 8000098:	08000b01 	stmdaeq	r0, {r0, r8, r9, fp}
 800009c:	08000b01 	stmdaeq	r0, {r0, r8, r9, fp}
 80000a0:	08000b01 	stmdaeq	r0, {r0, r8, r9, fp}
 80000a4:	08000b01 	stmdaeq	r0, {r0, r8, r9, fp}
 80000a8:	08000b01 	stmdaeq	r0, {r0, r8, r9, fp}
 80000ac:	08000b01 	stmdaeq	r0, {r0, r8, r9, fp}
 80000b0:	08000b01 	stmdaeq	r0, {r0, r8, r9, fp}
 80000b4:	08000b01 	stmdaeq	r0, {r0, r8, r9, fp}
 80000b8:	08000b01 	stmdaeq	r0, {r0, r8, r9, fp}
 80000bc:	08000b01 	stmdaeq	r0, {r0, r8, r9, fp}
 80000c0:	08000b01 	stmdaeq	r0, {r0, r8, r9, fp}
 80000c4:	08000b01 	stmdaeq	r0, {r0, r8, r9, fp}
 80000c8:	08000b01 	stmdaeq	r0, {r0, r8, r9, fp}
 80000cc:	08000b01 	stmdaeq	r0, {r0, r8, r9, fp}
 80000d0:	08000b01 	stmdaeq	r0, {r0, r8, r9, fp}
 80000d4:	08000b01 	stmdaeq	r0, {r0, r8, r9, fp}
 80000d8:	08000b01 	stmdaeq	r0, {r0, r8, r9, fp}
 80000dc:	08000b01 	stmdaeq	r0, {r0, r8, r9, fp}
 80000e0:	08000b01 	stmdaeq	r0, {r0, r8, r9, fp}
 80000e4:	08000b01 	stmdaeq	r0, {r0, r8, r9, fp}
 80000e8:	00000000 	andeq	r0, r0, r0
 80000ec:	08000b01 	stmdaeq	r0, {r0, r8, r9, fp}
 80000f0:	08000b01 	stmdaeq	r0, {r0, r8, r9, fp}
 80000f4:	08000b01 	stmdaeq	r0, {r0, r8, r9, fp}
 80000f8:	08000b01 	stmdaeq	r0, {r0, r8, r9, fp}
 80000fc:	08000b01 	stmdaeq	r0, {r0, r8, r9, fp}
 8000100:	08000b01 	stmdaeq	r0, {r0, r8, r9, fp}
 8000104:	08000b01 	stmdaeq	r0, {r0, r8, r9, fp}
 8000108:	08000b01 	stmdaeq	r0, {r0, r8, r9, fp}
 800010c:	08000b01 	stmdaeq	r0, {r0, r8, r9, fp}
 8000110:	08000b01 	stmdaeq	r0, {r0, r8, r9, fp}
 8000114:	08000b01 	stmdaeq	r0, {r0, r8, r9, fp}
 8000118:	08000b01 	stmdaeq	r0, {r0, r8, r9, fp}
 800011c:	08000b01 	stmdaeq	r0, {r0, r8, r9, fp}
 8000120:	08000b01 	stmdaeq	r0, {r0, r8, r9, fp}
 8000124:	08000b01 	stmdaeq	r0, {r0, r8, r9, fp}
 8000128:	08000b01 	stmdaeq	r0, {r0, r8, r9, fp}
 800012c:	08000b01 	stmdaeq	r0, {r0, r8, r9, fp}
 8000130:	08000b01 	stmdaeq	r0, {r0, r8, r9, fp}
 8000134:	08000b01 	stmdaeq	r0, {r0, r8, r9, fp}
 8000138:	08000b01 	stmdaeq	r0, {r0, r8, r9, fp}
 800013c:	08000b01 	stmdaeq	r0, {r0, r8, r9, fp}
	...
 8000150:	08000b01 	stmdaeq	r0, {r0, r8, r9, fp}
 8000154:	08000b01 	stmdaeq	r0, {r0, r8, r9, fp}
 8000158:	08000b01 	stmdaeq	r0, {r0, r8, r9, fp}
 800015c:	08000b01 	stmdaeq	r0, {r0, r8, r9, fp}
 8000160:	08000b01 	stmdaeq	r0, {r0, r8, r9, fp}
 8000164:	08000b01 	stmdaeq	r0, {r0, r8, r9, fp}
 8000168:	08000b01 	stmdaeq	r0, {r0, r8, r9, fp}
 800016c:	08000b01 	stmdaeq	r0, {r0, r8, r9, fp}
 8000170:	08000b01 	stmdaeq	r0, {r0, r8, r9, fp}
 8000174:	08000b01 	stmdaeq	r0, {r0, r8, r9, fp}
 8000178:	08000b01 	stmdaeq	r0, {r0, r8, r9, fp}
 800017c:	00000000 	andeq	r0, r0, r0
 8000180:	08000b01 	stmdaeq	r0, {r0, r8, r9, fp}
 8000184:	08000b01 	stmdaeq	r0, {r0, r8, r9, fp}
 8000188:	08000b01 	stmdaeq	r0, {r0, r8, r9, fp}
 800018c:	08000b01 	stmdaeq	r0, {r0, r8, r9, fp}
 8000190:	08000b01 	stmdaeq	r0, {r0, r8, r9, fp}
 8000194:	08000b01 	stmdaeq	r0, {r0, r8, r9, fp}
 8000198:	08000b01 	stmdaeq	r0, {r0, r8, r9, fp}
 800019c:	08000b01 	stmdaeq	r0, {r0, r8, r9, fp}
 80001a0:	08000b01 	stmdaeq	r0, {r0, r8, r9, fp}
 80001a4:	08000b01 	stmdaeq	r0, {r0, r8, r9, fp}
 80001a8:	08000b01 	stmdaeq	r0, {r0, r8, r9, fp}
 80001ac:	08000b01 	stmdaeq	r0, {r0, r8, r9, fp}
 80001b0:	08000b01 	stmdaeq	r0, {r0, r8, r9, fp}
 80001b4:	08000b01 	stmdaeq	r0, {r0, r8, r9, fp}
 80001b8:	08000b01 	stmdaeq	r0, {r0, r8, r9, fp}
 80001bc:	08000b01 	stmdaeq	r0, {r0, r8, r9, fp}
 80001c0:	08000b01 	stmdaeq	r0, {r0, r8, r9, fp}
 80001c4:	08000b01 	stmdaeq	r0, {r0, r8, r9, fp}
 80001c8:	08000b01 	stmdaeq	r0, {r0, r8, r9, fp}
 80001cc:	08000b01 	stmdaeq	r0, {r0, r8, r9, fp}
 80001d0:	08000b01 	stmdaeq	r0, {r0, r8, r9, fp}
 80001d4:	08000b01 	stmdaeq	r0, {r0, r8, r9, fp}
 80001d8:	08000b01 	stmdaeq	r0, {r0, r8, r9, fp}
 80001dc:	08000b01 	stmdaeq	r0, {r0, r8, r9, fp}
 80001e0:	08000b01 	stmdaeq	r0, {r0, r8, r9, fp}
 80001e4:	08000b01 	stmdaeq	r0, {r0, r8, r9, fp}
 80001e8:	08000b01 	stmdaeq	r0, {r0, r8, r9, fp}
 80001ec:	08000b01 	stmdaeq	r0, {r0, r8, r9, fp}
 80001f0:	08000b01 	stmdaeq	r0, {r0, r8, r9, fp}
 80001f4:	08000b01 	stmdaeq	r0, {r0, r8, r9, fp}
 80001f8:	08000b01 	stmdaeq	r0, {r0, r8, r9, fp}
 80001fc:	08000b01 	stmdaeq	r0, {r0, r8, r9, fp}
 8000200:	08000b01 	stmdaeq	r0, {r0, r8, r9, fp}
 8000204:	08000b01 	stmdaeq	r0, {r0, r8, r9, fp}
 8000208:	08000b01 	stmdaeq	r0, {r0, r8, r9, fp}
 800020c:	08000b01 	stmdaeq	r0, {r0, r8, r9, fp}
 8000210:	08000609 	stmdaeq	r0, {r0, r3, r9, sl}
 8000214:	08000b01 	stmdaeq	r0, {r0, r8, r9, fp}
 8000218:	08000b01 	stmdaeq	r0, {r0, r8, r9, fp}
 800021c:	08000b01 	stmdaeq	r0, {r0, r8, r9, fp}
 8000220:	08000b01 	stmdaeq	r0, {r0, r8, r9, fp}
 8000224:	08000b01 	stmdaeq	r0, {r0, r8, r9, fp}
 8000228:	08000b01 	stmdaeq	r0, {r0, r8, r9, fp}
 800022c:	00000000 	andeq	r0, r0, r0
 8000230:	08000b01 	stmdaeq	r0, {r0, r8, r9, fp}
 8000234:	08000b01 	stmdaeq	r0, {r0, r8, r9, fp}
 8000238:	00000000 	andeq	r0, r0, r0
 800023c:	080005f1 	stmdaeq	r0, {r0, r4, r5, r6, r7, r8, sl}
 8000240:	08000b01 	stmdaeq	r0, {r0, r8, r9, fp}
 8000244:	08000b01 	stmdaeq	r0, {r0, r8, r9, fp}
 8000248:	08000b01 	stmdaeq	r0, {r0, r8, r9, fp}
 800024c:	08000b01 	stmdaeq	r0, {r0, r8, r9, fp}
 8000250:	08000b01 	stmdaeq	r0, {r0, r8, r9, fp}
 8000254:	08000b01 	stmdaeq	r0, {r0, r8, r9, fp}
 8000258:	08000b01 	stmdaeq	r0, {r0, r8, r9, fp}
 800025c:	08000b01 	stmdaeq	r0, {r0, r8, r9, fp}
 8000260:	08000b01 	stmdaeq	r0, {r0, r8, r9, fp}
 8000264:	08000b01 	stmdaeq	r0, {r0, r8, r9, fp}
 8000268:	08000b01 	stmdaeq	r0, {r0, r8, r9, fp}
 800026c:	08000b01 	stmdaeq	r0, {r0, r8, r9, fp}
 8000270:	08000b01 	stmdaeq	r0, {r0, r8, r9, fp}
 8000274:	08000b01 	stmdaeq	r0, {r0, r8, r9, fp}
 8000278:	08000b01 	stmdaeq	r0, {r0, r8, r9, fp}
 800027c:	00000000 	andeq	r0, r0, r0
 8000280:	08000b01 	stmdaeq	r0, {r0, r8, r9, fp}
 8000284:	08000b01 	stmdaeq	r0, {r0, r8, r9, fp}
 8000288:	08000b01 	stmdaeq	r0, {r0, r8, r9, fp}
	...
 8000294:	08000b01 	stmdaeq	r0, {r0, r8, r9, fp}

Disassembly of section .text:

08000298 <__do_global_dtors_aux>:
 8000298:	e92d4010 	push	{r4, lr}
 800029c:	e59f4028 	ldr	r4, [pc, #40]	; 80002cc <__do_global_dtors_aux+0x34>
 80002a0:	e5d43000 	ldrb	r3, [r4]
 80002a4:	e3530000 	cmp	r3, #0
 80002a8:	1a000005 	bne	80002c4 <__do_global_dtors_aux+0x2c>
 80002ac:	e59f301c 	ldr	r3, [pc, #28]	; 80002d0 <__do_global_dtors_aux+0x38>
 80002b0:	e3530000 	cmp	r3, #0
 80002b4:	159f0018 	ldrne	r0, [pc, #24]	; 80002d4 <__do_global_dtors_aux+0x3c>
 80002b8:	11a00000 	movne	r0, r0
 80002bc:	e3a03001 	mov	r3, #1
 80002c0:	e5c43000 	strb	r3, [r4]
 80002c4:	e8bd4010 	pop	{r4, lr}
 80002c8:	e12fff1e 	bx	lr
 80002cc:	24000434 	strcs	r0, [r0], #-1076	; 0xfffffbcc
 80002d0:	00000000 	andeq	r0, r0, r0
 80002d4:	08000b08 	stmdaeq	r0, {r3, r8, r9, fp}

080002d8 <frame_dummy>:
 80002d8:	e59f301c 	ldr	r3, [pc, #28]	; 80002fc <frame_dummy+0x24>
 80002dc:	e3530000 	cmp	r3, #0
 80002e0:	012fff1e 	bxeq	lr
 80002e4:	e92d4010 	push	{r4, lr}
 80002e8:	e59f1010 	ldr	r1, [pc, #16]	; 8000300 <frame_dummy+0x28>
 80002ec:	e59f0010 	ldr	r0, [pc, #16]	; 8000304 <frame_dummy+0x2c>
 80002f0:	e1a00000 	nop			; (mov r0, r0)
 80002f4:	e8bd4010 	pop	{r4, lr}
 80002f8:	e12fff1e 	bx	lr
 80002fc:	00000000 	andeq	r0, r0, r0
 8000300:	24000438 	strcs	r0, [r0], #-1080	; 0xfffffbc8
 8000304:	08000b08 	stmdaeq	r0, {r3, r8, r9, fp}

08000308 <_stack_init>:
 8000308:	e10f4000 	mrs	r4, CPSR
 800030c:	e314000f 	tst	r4, #15
 8000310:	0a00001c 	beq	8000388 <_stack_init+0x80>
 8000314:	e1a0300d 	mov	r3, sp
 8000318:	e3a010d1 	mov	r1, #209	; 0xd1
 800031c:	e121f001 	msr	CPSR_c, r1
 8000320:	e1a0d003 	mov	sp, r3
 8000324:	e24daa01 	sub	sl, sp, #4096	; 0x1000
 8000328:	e1a0300a 	mov	r3, sl
 800032c:	e3a010d7 	mov	r1, #215	; 0xd7
 8000330:	e121f001 	msr	CPSR_c, r1
 8000334:	e1a0d003 	mov	sp, r3
 8000338:	e2433a01 	sub	r3, r3, #4096	; 0x1000
 800033c:	e3a010db 	mov	r1, #219	; 0xdb
 8000340:	e121f001 	msr	CPSR_c, r1
 8000344:	e1a0d003 	mov	sp, r3
 8000348:	e2433a01 	sub	r3, r3, #4096	; 0x1000
 800034c:	e3a010d2 	mov	r1, #210	; 0xd2
 8000350:	e121f001 	msr	CPSR_c, r1
 8000354:	e1a0d003 	mov	sp, r3
 8000358:	e2433a02 	sub	r3, r3, #8192	; 0x2000
 800035c:	e3a010d3 	mov	r1, #211	; 0xd3
 8000360:	e121f001 	msr	CPSR_c, r1
 8000364:	e1a0d003 	mov	sp, r3
 8000368:	e2433902 	sub	r3, r3, #32768	; 0x8000
 800036c:	e3c330ff 	bic	r3, r3, #255	; 0xff
 8000370:	e3c33cff 	bic	r3, r3, #65280	; 0xff00
 8000374:	e3a010df 	mov	r1, #223	; 0xdf
 8000378:	e121f001 	msr	CPSR_c, r1
 800037c:	e1a0d003 	mov	sp, r3
 8000380:	e38440c0 	orr	r4, r4, #192	; 0xc0
 8000384:	e121f004 	msr	CPSR_c, r4
 8000388:	e243a801 	sub	sl, r3, #65536	; 0x10000
 800038c:	e12fff1e 	bx	lr

08000390 <_mainCRTStartup>:
 8000390:	e59f3094 	ldr	r3, [pc, #148]	; 800042c <_mainCRTStartup+0x9c>
 8000394:	e3530000 	cmp	r3, #0
 8000398:	059f3080 	ldreq	r3, [pc, #128]	; 8000420 <_mainCRTStartup+0x90>
 800039c:	e1a0d003 	mov	sp, r3
 80003a0:	ebffffd8 	bl	8000308 <_stack_init>
 80003a4:	e3b01000 	movs	r1, #0
 80003a8:	e1a0b001 	mov	fp, r1
 80003ac:	e1a07001 	mov	r7, r1
 80003b0:	e59f0078 	ldr	r0, [pc, #120]	; 8000430 <_mainCRTStartup+0xa0>
 80003b4:	e59f2078 	ldr	r2, [pc, #120]	; 8000434 <_mainCRTStartup+0xa4>
 80003b8:	e0522000 	subs	r2, r2, r0
 80003bc:	eb0000c8 	bl	80006e4 <memset>
 80003c0:	e59f305c 	ldr	r3, [pc, #92]	; 8000424 <_mainCRTStartup+0x94>
 80003c4:	e3530000 	cmp	r3, #0
 80003c8:	0a000001 	beq	80003d4 <_mainCRTStartup+0x44>
 80003cc:	e1a0e00f 	mov	lr, pc
 80003d0:	e1a0f003 	mov	pc, r3
 80003d4:	e59f304c 	ldr	r3, [pc, #76]	; 8000428 <_mainCRTStartup+0x98>
 80003d8:	e3530000 	cmp	r3, #0
 80003dc:	0a000001 	beq	80003e8 <_mainCRTStartup+0x58>
 80003e0:	e1a0e00f 	mov	lr, pc
 80003e4:	e1a0f003 	mov	pc, r3
 80003e8:	e3b00000 	movs	r0, #0
 80003ec:	e3b01000 	movs	r1, #0
 80003f0:	e1b04000 	movs	r4, r0
 80003f4:	e1b05001 	movs	r5, r1
 80003f8:	e59f0038 	ldr	r0, [pc, #56]	; 8000438 <_mainCRTStartup+0xa8>
 80003fc:	e3500000 	cmp	r0, #0
 8000400:	0a000001 	beq	800040c <_mainCRTStartup+0x7c>
 8000404:	e59f0030 	ldr	r0, [pc, #48]	; 800043c <_mainCRTStartup+0xac>
 8000408:	eb000154 	bl	8000960 <atexit>
 800040c:	eb000092 	bl	800065c <__libc_init_array>
 8000410:	e1b00004 	movs	r0, r4
 8000414:	e1b01005 	movs	r1, r5
 8000418:	fa000008 	blx	8000440 <main>
 800041c:	eb000081 	bl	8000628 <exit>
 8000420:	00080000 	andeq	r0, r8, r0
	...
 8000430:	24000434 	strcs	r0, [r0], #-1076	; 0xfffffbcc
 8000434:	24000474 	strcs	r0, [r0], #-1140	; 0xfffffb8c
 8000438:	08000960 	stmdaeq	r0, {r5, r6, r8, fp}
 800043c:	08000980 	stmdaeq	r0, {r7, r8, fp}

08000440 <main>:
 8000440:	b480      	push	{r7}
 8000442:	b085      	sub	sp, #20
 8000444:	af00      	add	r7, sp, #0
 8000446:	2301      	movs	r3, #1
 8000448:	607b      	str	r3, [r7, #4]
 800044a:	4b17      	ldr	r3, [pc, #92]	; (80004a8 <main+0x68>)
 800044c:	f8d3 30e0 	ldr.w	r3, [r3, #224]	; 0xe0
 8000450:	4a15      	ldr	r2, [pc, #84]	; (80004a8 <main+0x68>)
 8000452:	f043 0302 	orr.w	r3, r3, #2
 8000456:	f8c2 30e0 	str.w	r3, [r2, #224]	; 0xe0
 800045a:	4b14      	ldr	r3, [pc, #80]	; (80004ac <main+0x6c>)
 800045c:	681a      	ldr	r2, [r3, #0]
 800045e:	4913      	ldr	r1, [pc, #76]	; (80004ac <main+0x6c>)
 8000460:	4b13      	ldr	r3, [pc, #76]	; (80004b0 <main+0x70>)
 8000462:	4013      	ands	r3, r2
 8000464:	600b      	str	r3, [r1, #0]
 8000466:	4b11      	ldr	r3, [pc, #68]	; (80004ac <main+0x6c>)
 8000468:	699b      	ldr	r3, [r3, #24]
 800046a:	4a10      	ldr	r2, [pc, #64]	; (80004ac <main+0x6c>)
 800046c:	f443 33a0 	orr.w	r3, r3, #81920	; 0x14000
 8000470:	6193      	str	r3, [r2, #24]
 8000472:	2300      	movs	r3, #0
 8000474:	60fb      	str	r3, [r7, #12]
 8000476:	e002      	b.n	800047e <main+0x3e>
 8000478:	68fb      	ldr	r3, [r7, #12]
 800047a:	3301      	adds	r3, #1
 800047c:	60fb      	str	r3, [r7, #12]
 800047e:	68fb      	ldr	r3, [r7, #12]
 8000480:	4a0c      	ldr	r2, [pc, #48]	; (80004b4 <main+0x74>)
 8000482:	4293      	cmp	r3, r2
 8000484:	ddf8      	ble.n	8000478 <main+0x38>
 8000486:	4b09      	ldr	r3, [pc, #36]	; (80004ac <main+0x6c>)
 8000488:	699a      	ldr	r2, [r3, #24]
 800048a:	4908      	ldr	r1, [pc, #32]	; (80004ac <main+0x6c>)
 800048c:	4b0a      	ldr	r3, [pc, #40]	; (80004b8 <main+0x78>)
 800048e:	4313      	orrs	r3, r2
 8000490:	618b      	str	r3, [r1, #24]
 8000492:	2300      	movs	r3, #0
 8000494:	60bb      	str	r3, [r7, #8]
 8000496:	e002      	b.n	800049e <main+0x5e>
 8000498:	68bb      	ldr	r3, [r7, #8]
 800049a:	3301      	adds	r3, #1
 800049c:	60bb      	str	r3, [r7, #8]
 800049e:	68bb      	ldr	r3, [r7, #8]
 80004a0:	4a04      	ldr	r2, [pc, #16]	; (80004b4 <main+0x74>)
 80004a2:	4293      	cmp	r3, r2
 80004a4:	ddf8      	ble.n	8000498 <main+0x58>
 80004a6:	e7de      	b.n	8000466 <main+0x26>
 80004a8:	58024400 	stmdapl	r2, {sl, lr}
 80004ac:	58020400 	stmdapl	r2, {sl}
 80004b0:	dffffffd 	svcle	0x00fffffd
 80004b4:	0001d4bf 			; <UNDEFINED> instruction: 0x0001d4bf
 80004b8:	40000001 	andmi	r0, r0, r1

080004bc <SystemInit>:
 80004bc:	b580      	push	{r7, lr}
 80004be:	b0b8      	sub	sp, #224	; 0xe0
 80004c0:	af00      	add	r7, sp, #0
 80004c2:	2300      	movs	r3, #0
 80004c4:	f8c7 30dc 	str.w	r3, [r7, #220]	; 0xdc
 80004c8:	2300      	movs	r3, #0
 80004ca:	f8c7 30d8 	str.w	r3, [r7, #216]	; 0xd8
 80004ce:	2300      	movs	r3, #0
 80004d0:	f8c7 30d4 	str.w	r3, [r7, #212]	; 0xd4
 80004d4:	2300      	movs	r3, #0
 80004d6:	f8c7 30d0 	str.w	r3, [r7, #208]	; 0xd0
 80004da:	2300      	movs	r3, #0
 80004dc:	f8c7 30cc 	str.w	r3, [r7, #204]	; 0xcc
 80004e0:	2300      	movs	r3, #0
 80004e2:	f8c7 30c8 	str.w	r3, [r7, #200]	; 0xc8
 80004e6:	2300      	movs	r3, #0
 80004e8:	f8c7 30c4 	str.w	r3, [r7, #196]	; 0xc4
 80004ec:	2300      	movs	r3, #0
 80004ee:	f8c7 30c0 	str.w	r3, [r7, #192]	; 0xc0
 80004f2:	2300      	movs	r3, #0
 80004f4:	f8c7 30bc 	str.w	r3, [r7, #188]	; 0xbc
 80004f8:	2300      	movs	r3, #0
 80004fa:	f8c7 30b8 	str.w	r3, [r7, #184]	; 0xb8
 80004fe:	2300      	movs	r3, #0
 8000500:	f8c7 30b4 	str.w	r3, [r7, #180]	; 0xb4
 8000504:	2300      	movs	r3, #0
 8000506:	f8c7 30b0 	str.w	r3, [r7, #176]	; 0xb0
 800050a:	2300      	movs	r3, #0
 800050c:	f8c7 30ac 	str.w	r3, [r7, #172]	; 0xac
 8000510:	2300      	movs	r3, #0
 8000512:	f8c7 30a8 	str.w	r3, [r7, #168]	; 0xa8
 8000516:	2300      	movs	r3, #0
 8000518:	f8c7 30a4 	str.w	r3, [r7, #164]	; 0xa4
 800051c:	2300      	movs	r3, #0
 800051e:	f8c7 30a0 	str.w	r3, [r7, #160]	; 0xa0
 8000522:	2300      	movs	r3, #0
 8000524:	f8c7 309c 	str.w	r3, [r7, #156]	; 0x9c
 8000528:	2300      	movs	r3, #0
 800052a:	f8c7 3098 	str.w	r3, [r7, #152]	; 0x98
 800052e:	2300      	movs	r3, #0
 8000530:	f8c7 3094 	str.w	r3, [r7, #148]	; 0x94
 8000534:	2300      	movs	r3, #0
 8000536:	f8c7 3090 	str.w	r3, [r7, #144]	; 0x90
 800053a:	2300      	movs	r3, #0
 800053c:	f8c7 308c 	str.w	r3, [r7, #140]	; 0x8c
 8000540:	2300      	movs	r3, #0
 8000542:	f8c7 3088 	str.w	r3, [r7, #136]	; 0x88
 8000546:	2300      	movs	r3, #0
 8000548:	f8c7 3084 	str.w	r3, [r7, #132]	; 0x84
 800054c:	2300      	movs	r3, #0
 800054e:	f8c7 3080 	str.w	r3, [r7, #128]	; 0x80
 8000552:	2300      	movs	r3, #0
 8000554:	67fb      	str	r3, [r7, #124]	; 0x7c
 8000556:	2300      	movs	r3, #0
 8000558:	67bb      	str	r3, [r7, #120]	; 0x78
 800055a:	2300      	movs	r3, #0
 800055c:	677b      	str	r3, [r7, #116]	; 0x74
 800055e:	2300      	movs	r3, #0
 8000560:	673b      	str	r3, [r7, #112]	; 0x70
 8000562:	2300      	movs	r3, #0
 8000564:	66fb      	str	r3, [r7, #108]	; 0x6c
 8000566:	2300      	movs	r3, #0
 8000568:	66bb      	str	r3, [r7, #104]	; 0x68
 800056a:	2300      	movs	r3, #0
 800056c:	667b      	str	r3, [r7, #100]	; 0x64
 800056e:	2300      	movs	r3, #0
 8000570:	663b      	str	r3, [r7, #96]	; 0x60
 8000572:	2300      	movs	r3, #0
 8000574:	65fb      	str	r3, [r7, #92]	; 0x5c
 8000576:	2300      	movs	r3, #0
 8000578:	65bb      	str	r3, [r7, #88]	; 0x58
 800057a:	2300      	movs	r3, #0
 800057c:	657b      	str	r3, [r7, #84]	; 0x54
 800057e:	2300      	movs	r3, #0
 8000580:	653b      	str	r3, [r7, #80]	; 0x50
 8000582:	2300      	movs	r3, #0
 8000584:	64fb      	str	r3, [r7, #76]	; 0x4c
 8000586:	2300      	movs	r3, #0
 8000588:	64bb      	str	r3, [r7, #72]	; 0x48
 800058a:	2300      	movs	r3, #0
 800058c:	647b      	str	r3, [r7, #68]	; 0x44
 800058e:	2300      	movs	r3, #0
 8000590:	643b      	str	r3, [r7, #64]	; 0x40
 8000592:	2300      	movs	r3, #0
 8000594:	63fb      	str	r3, [r7, #60]	; 0x3c
 8000596:	2300      	movs	r3, #0
 8000598:	63bb      	str	r3, [r7, #56]	; 0x38
 800059a:	2300      	movs	r3, #0
 800059c:	637b      	str	r3, [r7, #52]	; 0x34
 800059e:	2300      	movs	r3, #0
 80005a0:	633b      	str	r3, [r7, #48]	; 0x30
 80005a2:	2300      	movs	r3, #0
 80005a4:	62fb      	str	r3, [r7, #44]	; 0x2c
 80005a6:	2300      	movs	r3, #0
 80005a8:	62bb      	str	r3, [r7, #40]	; 0x28
 80005aa:	2300      	movs	r3, #0
 80005ac:	627b      	str	r3, [r7, #36]	; 0x24
 80005ae:	2300      	movs	r3, #0
 80005b0:	623b      	str	r3, [r7, #32]
 80005b2:	2300      	movs	r3, #0
 80005b4:	61fb      	str	r3, [r7, #28]
 80005b6:	2300      	movs	r3, #0
 80005b8:	61bb      	str	r3, [r7, #24]
 80005ba:	2300      	movs	r3, #0
 80005bc:	617b      	str	r3, [r7, #20]
 80005be:	2300      	movs	r3, #0
 80005c0:	613b      	str	r3, [r7, #16]
 80005c2:	2300      	movs	r3, #0
 80005c4:	60fb      	str	r3, [r7, #12]
 80005c6:	2300      	movs	r3, #0
 80005c8:	60bb      	str	r3, [r7, #8]
 80005ca:	2300      	movs	r3, #0
 80005cc:	607b      	str	r3, [r7, #4]
 80005ce:	4b07      	ldr	r3, [pc, #28]	; (80005ec <SystemInit+0x130>)
 80005d0:	f8d3 3304 	ldr.w	r3, [r3, #772]	; 0x304
 80005d4:	4a05      	ldr	r2, [pc, #20]	; (80005ec <SystemInit+0x130>)
 80005d6:	f043 0301 	orr.w	r3, r3, #1
 80005da:	f8c2 3304 	str.w	r3, [r2, #772]	; 0x304
 80005de:	f7ff ff2f 	bl	8000440 <main>
 80005e2:	bf00      	nop
 80005e4:	37e0      	adds	r7, #224	; 0xe0
 80005e6:	46bd      	mov	sp, r7
 80005e8:	bd80      	pop	{r7, pc}
 80005ea:	bf00      	nop
 80005ec:	58000400 	stmdapl	r0, {sl}

080005f0 <ADC3_IRQHandler>:
 80005f0:	b480      	push	{r7}
 80005f2:	b083      	sub	sp, #12
 80005f4:	af00      	add	r7, sp, #0
 80005f6:	4b03      	ldr	r3, [pc, #12]	; (8000604 <ADC3_IRQHandler+0x14>)
 80005f8:	607b      	str	r3, [r7, #4]
 80005fa:	bf00      	nop
 80005fc:	370c      	adds	r7, #12
 80005fe:	46bd      	mov	sp, r7
 8000600:	bc80      	pop	{r7}
 8000602:	4770      	bx	lr
 8000604:	deadbeef 	cdple	14, 10, cr11, cr13, cr15, {7}

08000608 <TIM15_IRQHandler>:
 8000608:	b480      	push	{r7}
 800060a:	af00      	add	r7, sp, #0
 800060c:	bf00      	nop
 800060e:	46bd      	mov	sp, r7
 8000610:	bc80      	pop	{r7}
 8000612:	4770      	bx	lr
 8000614:	08000b9c 	stmdaeq	r0, {r2, r3, r4, r7, r8, r9, fp}
 8000618:	24000000 	strcs	r0, [r0], #-0
 800061c:	24000434 	strcs	r0, [r0], #-1076	; 0xfffffbcc
 8000620:	24000434 	strcs	r0, [r0], #-1076	; 0xfffffbcc
 8000624:	24000474 	strcs	r0, [r0], #-1140	; 0xfffffb8c

08000628 <exit>:
 8000628:	e92d4010 	push	{r4, lr}
 800062c:	e3a01000 	mov	r1, #0
 8000630:	e1a04000 	mov	r4, r0
 8000634:	eb00007b 	bl	8000828 <__call_exitprocs>
 8000638:	e59f3018 	ldr	r3, [pc, #24]	; 8000658 <exit+0x30>
 800063c:	e5930000 	ldr	r0, [r3]
 8000640:	e590303c 	ldr	r3, [r0, #60]	; 0x3c
 8000644:	e3530000 	cmp	r3, #0
 8000648:	11a0e00f 	movne	lr, pc
 800064c:	112fff13 	bxne	r3
 8000650:	e1a00004 	mov	r0, r4
 8000654:	eb00012a 	bl	8000b04 <_exit>
 8000658:	08000b84 	stmdaeq	r0, {r2, r7, r8, r9, fp}

0800065c <__libc_init_array>:
 800065c:	e92d4070 	push	{r4, r5, r6, lr}
 8000660:	e59f606c 	ldr	r6, [pc, #108]	; 80006d4 <__libc_init_array+0x78>
 8000664:	e59f506c 	ldr	r5, [pc, #108]	; 80006d8 <__libc_init_array+0x7c>
 8000668:	e0466005 	sub	r6, r6, r5
 800066c:	e1b06146 	asrs	r6, r6, #2
 8000670:	0a000007 	beq	8000694 <__libc_init_array+0x38>
 8000674:	e3a04000 	mov	r4, #0
 8000678:	e2455004 	sub	r5, r5, #4
 800067c:	e5b53004 	ldr	r3, [r5, #4]!
 8000680:	e2844001 	add	r4, r4, #1
 8000684:	e1a0e00f 	mov	lr, pc
 8000688:	e12fff13 	bx	r3
 800068c:	e1560004 	cmp	r6, r4
 8000690:	1afffff9 	bne	800067c <__libc_init_array+0x20>
 8000694:	e59f6040 	ldr	r6, [pc, #64]	; 80006dc <__libc_init_array+0x80>
 8000698:	e59f5040 	ldr	r5, [pc, #64]	; 80006e0 <__libc_init_array+0x84>
 800069c:	e0466005 	sub	r6, r6, r5
 80006a0:	eb000119 	bl	8000b0c <_init>
 80006a4:	e1b06146 	asrs	r6, r6, #2
 80006a8:	0a000007 	beq	80006cc <__libc_init_array+0x70>
 80006ac:	e3a04000 	mov	r4, #0
 80006b0:	e2455004 	sub	r5, r5, #4
 80006b4:	e5b53004 	ldr	r3, [r5, #4]!
 80006b8:	e2844001 	add	r4, r4, #1
 80006bc:	e1a0e00f 	mov	lr, pc
 80006c0:	e12fff13 	bx	r3
 80006c4:	e1560004 	cmp	r6, r4
 80006c8:	1afffff9 	bne	80006b4 <__libc_init_array+0x58>
 80006cc:	e8bd4070 	pop	{r4, r5, r6, lr}
 80006d0:	e12fff1e 	bx	lr
 80006d4:	08000b90 	stmdaeq	r0, {r4, r7, r8, r9, fp}
 80006d8:	08000b90 	stmdaeq	r0, {r4, r7, r8, r9, fp}
 80006dc:	08000b98 	stmdaeq	r0, {r3, r4, r7, r8, r9, fp}
 80006e0:	08000b90 	stmdaeq	r0, {r4, r7, r8, r9, fp}

080006e4 <memset>:
 80006e4:	e3100003 	tst	r0, #3
 80006e8:	0a000040 	beq	80007f0 <memset+0x10c>
 80006ec:	e3520000 	cmp	r2, #0
 80006f0:	e2422001 	sub	r2, r2, #1
 80006f4:	012fff1e 	bxeq	lr
 80006f8:	e1a03000 	mov	r3, r0
 80006fc:	e201c0ff 	and	ip, r1, #255	; 0xff
 8000700:	ea000002 	b	8000710 <memset+0x2c>
 8000704:	e2422001 	sub	r2, r2, #1
 8000708:	e3720001 	cmn	r2, #1
 800070c:	012fff1e 	bxeq	lr
 8000710:	e4c3c001 	strb	ip, [r3], #1
 8000714:	e3130003 	tst	r3, #3
 8000718:	1afffff9 	bne	8000704 <memset+0x20>
 800071c:	e3520003 	cmp	r2, #3
 8000720:	9a000028 	bls	80007c8 <memset+0xe4>
 8000724:	e92d4030 	push	{r4, r5, lr}
 8000728:	e201e0ff 	and	lr, r1, #255	; 0xff
 800072c:	e18ee40e 	orr	lr, lr, lr, lsl #8
 8000730:	e352000f 	cmp	r2, #15
 8000734:	e18ee80e 	orr	lr, lr, lr, lsl #16
 8000738:	9a00002e 	bls	80007f8 <memset+0x114>
 800073c:	e242c010 	sub	ip, r2, #16
 8000740:	e3cc400f 	bic	r4, ip, #15
 8000744:	e2835020 	add	r5, r3, #32
 8000748:	e0855004 	add	r5, r5, r4
 800074c:	e1a0422c 	lsr	r4, ip, #4
 8000750:	e283c010 	add	ip, r3, #16
 8000754:	e50ce010 	str	lr, [ip, #-16]
 8000758:	e50ce00c 	str	lr, [ip, #-12]
 800075c:	e50ce008 	str	lr, [ip, #-8]
 8000760:	e50ce004 	str	lr, [ip, #-4]
 8000764:	e28cc010 	add	ip, ip, #16
 8000768:	e15c0005 	cmp	ip, r5
 800076c:	1afffff8 	bne	8000754 <memset+0x70>
 8000770:	e284c001 	add	ip, r4, #1
 8000774:	e312000c 	tst	r2, #12
 8000778:	e083c20c 	add	ip, r3, ip, lsl #4
 800077c:	e202200f 	and	r2, r2, #15
 8000780:	0a000018 	beq	80007e8 <memset+0x104>
 8000784:	e2423004 	sub	r3, r2, #4
 8000788:	e3c33003 	bic	r3, r3, #3
 800078c:	e2833004 	add	r3, r3, #4
 8000790:	e08c3003 	add	r3, ip, r3
 8000794:	e48ce004 	str	lr, [ip], #4
 8000798:	e153000c 	cmp	r3, ip
 800079c:	1afffffc 	bne	8000794 <memset+0xb0>
 80007a0:	e2022003 	and	r2, r2, #3
 80007a4:	e3520000 	cmp	r2, #0
 80007a8:	0a000004 	beq	80007c0 <memset+0xdc>
 80007ac:	e20110ff 	and	r1, r1, #255	; 0xff
 80007b0:	e0832002 	add	r2, r3, r2
 80007b4:	e4c31001 	strb	r1, [r3], #1
 80007b8:	e1520003 	cmp	r2, r3
 80007bc:	1afffffc 	bne	80007b4 <memset+0xd0>
 80007c0:	e8bd4030 	pop	{r4, r5, lr}
 80007c4:	e12fff1e 	bx	lr
 80007c8:	e3520000 	cmp	r2, #0
 80007cc:	012fff1e 	bxeq	lr
 80007d0:	e20110ff 	and	r1, r1, #255	; 0xff
 80007d4:	e0832002 	add	r2, r3, r2
 80007d8:	e4c31001 	strb	r1, [r3], #1
 80007dc:	e1520003 	cmp	r2, r3
 80007e0:	1afffffc 	bne	80007d8 <memset+0xf4>
 80007e4:	e12fff1e 	bx	lr
 80007e8:	e1a0300c 	mov	r3, ip
 80007ec:	eaffffec 	b	80007a4 <memset+0xc0>
 80007f0:	e1a03000 	mov	r3, r0
 80007f4:	eaffffc8 	b	800071c <memset+0x38>
 80007f8:	e1a0c003 	mov	ip, r3
 80007fc:	eaffffe0 	b	8000784 <memset+0xa0>

08000800 <register_fini>:
 8000800:	e59f3018 	ldr	r3, [pc, #24]	; 8000820 <register_fini+0x20>
 8000804:	e3530000 	cmp	r3, #0
 8000808:	012fff1e 	bxeq	lr
 800080c:	e92d4010 	push	{r4, lr}
 8000810:	e59f000c 	ldr	r0, [pc, #12]	; 8000824 <register_fini+0x24>
 8000814:	eb000051 	bl	8000960 <atexit>
 8000818:	e8bd4010 	pop	{r4, lr}
 800081c:	e12fff1e 	bx	lr
 8000820:	00000000 	andeq	r0, r0, r0
 8000824:	08000980 	stmdaeq	r0, {r7, r8, fp}

08000828 <__call_exitprocs>:
 8000828:	e92d4ff0 	push	{r4, r5, r6, r7, r8, r9, sl, fp, lr}
 800082c:	e1a0b000 	mov	fp, r0
 8000830:	e59f3120 	ldr	r3, [pc, #288]	; 8000958 <__call_exitprocs+0x130>
 8000834:	e24dd00c 	sub	sp, sp, #12
 8000838:	e5930000 	ldr	r0, [r3]
 800083c:	e1a07001 	mov	r7, r1
 8000840:	e58db004 	str	fp, [sp, #4]
 8000844:	eb000063 	bl	80009d8 <__retarget_lock_acquire_recursive>
 8000848:	e59f310c 	ldr	r3, [pc, #268]	; 800095c <__call_exitprocs+0x134>
 800084c:	e5938000 	ldr	r8, [r3]
 8000850:	e5986148 	ldr	r6, [r8, #328]	; 0x148
 8000854:	e3560000 	cmp	r6, #0
 8000858:	0a000028 	beq	8000900 <__call_exitprocs+0xd8>
 800085c:	e3a09001 	mov	r9, #1
 8000860:	e3a0a000 	mov	sl, #0
 8000864:	e5964004 	ldr	r4, [r6, #4]
 8000868:	e2545001 	subs	r5, r4, #1
 800086c:	4a000023 	bmi	8000900 <__call_exitprocs+0xd8>
 8000870:	e2844001 	add	r4, r4, #1
 8000874:	e0864104 	add	r4, r6, r4, lsl #2
 8000878:	ea000003 	b	800088c <__call_exitprocs+0x64>
 800087c:	e2455001 	sub	r5, r5, #1
 8000880:	e3750001 	cmn	r5, #1
 8000884:	e2444004 	sub	r4, r4, #4
 8000888:	0a00001c 	beq	8000900 <__call_exitprocs+0xd8>
 800088c:	e3570000 	cmp	r7, #0
 8000890:	0a000002 	beq	80008a0 <__call_exitprocs+0x78>
 8000894:	e5943100 	ldr	r3, [r4, #256]	; 0x100
 8000898:	e1530007 	cmp	r3, r7
 800089c:	1afffff6 	bne	800087c <__call_exitprocs+0x54>
 80008a0:	e5963004 	ldr	r3, [r6, #4]
 80008a4:	e5942000 	ldr	r2, [r4]
 80008a8:	e2433001 	sub	r3, r3, #1
 80008ac:	e1530005 	cmp	r3, r5
 80008b0:	05865004 	streq	r5, [r6, #4]
 80008b4:	1584a000 	strne	sl, [r4]
 80008b8:	e3520000 	cmp	r2, #0
 80008bc:	0affffee 	beq	800087c <__call_exitprocs+0x54>
 80008c0:	e5963188 	ldr	r3, [r6, #392]	; 0x188
 80008c4:	e1a01519 	lsl	r1, r9, r5
 80008c8:	e1110003 	tst	r1, r3
 80008cc:	e596b004 	ldr	fp, [r6, #4]
 80008d0:	1a000010 	bne	8000918 <__call_exitprocs+0xf0>
 80008d4:	e1a0e00f 	mov	lr, pc
 80008d8:	e12fff12 	bx	r2
 80008dc:	e5962004 	ldr	r2, [r6, #4]
 80008e0:	e152000b 	cmp	r2, fp
 80008e4:	1a000015 	bne	8000940 <__call_exitprocs+0x118>
 80008e8:	e5983148 	ldr	r3, [r8, #328]	; 0x148
 80008ec:	e1530006 	cmp	r3, r6
 80008f0:	0affffe1 	beq	800087c <__call_exitprocs+0x54>
 80008f4:	e1a06003 	mov	r6, r3
 80008f8:	e3560000 	cmp	r6, #0
 80008fc:	1affffd8 	bne	8000864 <__call_exitprocs+0x3c>
 8000900:	e59f3050 	ldr	r3, [pc, #80]	; 8000958 <__call_exitprocs+0x130>
 8000904:	e5930000 	ldr	r0, [r3]
 8000908:	eb000038 	bl	80009f0 <__retarget_lock_release_recursive>
 800090c:	e28dd00c 	add	sp, sp, #12
 8000910:	e8bd4ff0 	pop	{r4, r5, r6, r7, r8, r9, sl, fp, lr}
 8000914:	e12fff1e 	bx	lr
 8000918:	e596018c 	ldr	r0, [r6, #396]	; 0x18c
 800091c:	e1110000 	tst	r1, r0
 8000920:	1a000008 	bne	8000948 <__call_exitprocs+0x120>
 8000924:	e59d0004 	ldr	r0, [sp, #4]
 8000928:	e5941080 	ldr	r1, [r4, #128]	; 0x80
 800092c:	e1a0e00f 	mov	lr, pc
 8000930:	e12fff12 	bx	r2
 8000934:	e5962004 	ldr	r2, [r6, #4]
 8000938:	e152000b 	cmp	r2, fp
 800093c:	0affffe9 	beq	80008e8 <__call_exitprocs+0xc0>
 8000940:	e5986148 	ldr	r6, [r8, #328]	; 0x148
 8000944:	eaffffeb 	b	80008f8 <__call_exitprocs+0xd0>
 8000948:	e5940080 	ldr	r0, [r4, #128]	; 0x80
 800094c:	e1a0e00f 	mov	lr, pc
 8000950:	e12fff12 	bx	r2
 8000954:	eaffffe0 	b	80008dc <__call_exitprocs+0xb4>
 8000958:	24000430 	strcs	r0, [r0], #-1072	; 0xfffffbd0
 800095c:	08000b84 	stmdaeq	r0, {r2, r7, r8, r9, fp}

08000960 <atexit>:
 8000960:	e3a03000 	mov	r3, #0
 8000964:	e92d4010 	push	{r4, lr}
 8000968:	e1a01000 	mov	r1, r0
 800096c:	e1a02003 	mov	r2, r3
 8000970:	e1a00003 	mov	r0, r3
 8000974:	eb00001e 	bl	80009f4 <__register_exitproc>
 8000978:	e8bd4010 	pop	{r4, lr}
 800097c:	e12fff1e 	bx	lr

08000980 <__libc_fini_array>:
 8000980:	e92d4070 	push	{r4, r5, r6, lr}
 8000984:	e59f5030 	ldr	r5, [pc, #48]	; 80009bc <__libc_fini_array+0x3c>
 8000988:	e59f4030 	ldr	r4, [pc, #48]	; 80009c0 <__libc_fini_array+0x40>
 800098c:	e0454004 	sub	r4, r5, r4
 8000990:	e1b04144 	asrs	r4, r4, #2
 8000994:	0a000005 	beq	80009b0 <__libc_fini_array+0x30>
 8000998:	e5353004 	ldr	r3, [r5, #-4]!
 800099c:	e2444001 	sub	r4, r4, #1
 80009a0:	e1a0e00f 	mov	lr, pc
 80009a4:	e12fff13 	bx	r3
 80009a8:	e3540000 	cmp	r4, #0
 80009ac:	1afffff9 	bne	8000998 <__libc_fini_array+0x18>
 80009b0:	eb00005b 	bl	8000b24 <_fini>
 80009b4:	e8bd4070 	pop	{r4, r5, r6, lr}
 80009b8:	e12fff1e 	bx	lr
 80009bc:	08000b9c 	stmdaeq	r0, {r2, r3, r4, r7, r8, r9, fp}
 80009c0:	08000b98 	stmdaeq	r0, {r3, r4, r7, r8, r9, fp}

080009c4 <__retarget_lock_init>:
 80009c4:	e12fff1e 	bx	lr

080009c8 <__retarget_lock_init_recursive>:
 80009c8:	e12fff1e 	bx	lr

080009cc <__retarget_lock_close>:
 80009cc:	e12fff1e 	bx	lr

080009d0 <__retarget_lock_close_recursive>:
 80009d0:	e12fff1e 	bx	lr

080009d4 <__retarget_lock_acquire>:
 80009d4:	e12fff1e 	bx	lr

080009d8 <__retarget_lock_acquire_recursive>:
 80009d8:	e12fff1e 	bx	lr

080009dc <__retarget_lock_try_acquire>:
 80009dc:	e3a00001 	mov	r0, #1
 80009e0:	e12fff1e 	bx	lr

080009e4 <__retarget_lock_try_acquire_recursive>:
 80009e4:	e3a00001 	mov	r0, #1
 80009e8:	e12fff1e 	bx	lr

080009ec <__retarget_lock_release>:
 80009ec:	e12fff1e 	bx	lr

080009f0 <__retarget_lock_release_recursive>:
 80009f0:	e12fff1e 	bx	lr

080009f4 <__register_exitproc>:
 80009f4:	e92d41f0 	push	{r4, r5, r6, r7, r8, lr}
 80009f8:	e59f80a8 	ldr	r8, [pc, #168]	; 8000aa8 <__register_exitproc+0xb4>
 80009fc:	e1a04000 	mov	r4, r0
 8000a00:	e5980000 	ldr	r0, [r8]
 8000a04:	e1a06003 	mov	r6, r3
 8000a08:	e1a05001 	mov	r5, r1
 8000a0c:	e1a07002 	mov	r7, r2
 8000a10:	ebfffff0 	bl	80009d8 <__retarget_lock_acquire_recursive>
 8000a14:	e59f3090 	ldr	r3, [pc, #144]	; 8000aac <__register_exitproc+0xb8>
 8000a18:	e5933000 	ldr	r3, [r3]
 8000a1c:	e593c148 	ldr	ip, [r3, #328]	; 0x148
 8000a20:	e35c0000 	cmp	ip, #0
 8000a24:	0283cf53 	addeq	ip, r3, #332	; 0x14c
 8000a28:	e59ce004 	ldr	lr, [ip, #4]
 8000a2c:	0583c148 	streq	ip, [r3, #328]	; 0x148
 8000a30:	e35e001f 	cmp	lr, #31
 8000a34:	ca000017 	bgt	8000a98 <__register_exitproc+0xa4>
 8000a38:	e3540000 	cmp	r4, #0
 8000a3c:	1a000008 	bne	8000a64 <__register_exitproc+0x70>
 8000a40:	e28e3001 	add	r3, lr, #1
 8000a44:	e28ee002 	add	lr, lr, #2
 8000a48:	e58c3004 	str	r3, [ip, #4]
 8000a4c:	e5980000 	ldr	r0, [r8]
 8000a50:	e78c510e 	str	r5, [ip, lr, lsl #2]
 8000a54:	ebffffe5 	bl	80009f0 <__retarget_lock_release_recursive>
 8000a58:	e3a00000 	mov	r0, #0
 8000a5c:	e8bd41f0 	pop	{r4, r5, r6, r7, r8, lr}
 8000a60:	e12fff1e 	bx	lr
 8000a64:	e3a03001 	mov	r3, #1
 8000a68:	e08c110e 	add	r1, ip, lr, lsl #2
 8000a6c:	e5817088 	str	r7, [r1, #136]	; 0x88
 8000a70:	e59c2188 	ldr	r2, [ip, #392]	; 0x188
 8000a74:	e1a03e13 	lsl	r3, r3, lr
 8000a78:	e1822003 	orr	r2, r2, r3
 8000a7c:	e58c2188 	str	r2, [ip, #392]	; 0x188
 8000a80:	e5816108 	str	r6, [r1, #264]	; 0x108
 8000a84:	e3540002 	cmp	r4, #2
 8000a88:	059c218c 	ldreq	r2, [ip, #396]	; 0x18c
 8000a8c:	01823003 	orreq	r3, r2, r3
 8000a90:	058c318c 	streq	r3, [ip, #396]	; 0x18c
 8000a94:	eaffffe9 	b	8000a40 <__register_exitproc+0x4c>
 8000a98:	e5980000 	ldr	r0, [r8]
 8000a9c:	ebffffd3 	bl	80009f0 <__retarget_lock_release_recursive>
 8000aa0:	e3e00000 	mvn	r0, #0
 8000aa4:	eaffffec 	b	8000a5c <__register_exitproc+0x68>
 8000aa8:	24000430 	strcs	r0, [r0], #-1072	; 0xfffffbd0
 8000aac:	08000b84 	stmdaeq	r0, {r2, r7, r8, r9, fp}

08000ab0 <Reset_Handler>:
 8000ab0:	f8df d034 	ldr.w	sp, [pc, #52]	; 8000ae8 <LoopFillZerobss+0xe>
 8000ab4:	f7ff fd02 	bl	80004bc <SystemInit>
 8000ab8:	480c      	ldr	r0, [pc, #48]	; (8000aec <LoopFillZerobss+0x12>)
 8000aba:	490d      	ldr	r1, [pc, #52]	; (8000af0 <LoopFillZerobss+0x16>)
 8000abc:	4a0d      	ldr	r2, [pc, #52]	; (8000af4 <LoopFillZerobss+0x1a>)
 8000abe:	2300      	movs	r3, #0
 8000ac0:	e002      	b.n	8000ac8 <LoopCopyDataInit>

08000ac2 <CopyDataInit>:
 8000ac2:	58d4      	ldr	r4, [r2, r3]
 8000ac4:	50c4      	str	r4, [r0, r3]
 8000ac6:	3304      	adds	r3, #4

08000ac8 <LoopCopyDataInit>:
 8000ac8:	18c4      	adds	r4, r0, r3
 8000aca:	428c      	cmp	r4, r1
 8000acc:	d3f9      	bcc.n	8000ac2 <CopyDataInit>
 8000ace:	4a0a      	ldr	r2, [pc, #40]	; (8000af8 <LoopFillZerobss+0x1e>)
 8000ad0:	4c0a      	ldr	r4, [pc, #40]	; (8000afc <LoopFillZerobss+0x22>)
 8000ad2:	2300      	movs	r3, #0
 8000ad4:	e001      	b.n	8000ada <LoopFillZerobss>

08000ad6 <FillZerobss>:
 8000ad6:	6013      	str	r3, [r2, #0]
 8000ad8:	3204      	adds	r2, #4

08000ada <LoopFillZerobss>:
 8000ada:	42a2      	cmp	r2, r4
 8000adc:	d3fb      	bcc.n	8000ad6 <FillZerobss>
 8000ade:	f7ff fdbd 	bl	800065c <__libc_init_array>
 8000ae2:	f7ff fcad 	bl	8000440 <main>
 8000ae6:	4770      	bx	lr
 8000ae8:	24080000 	strcs	r0, [r8], #-0
 8000aec:	24000000 	strcs	r0, [r0], #-0
 8000af0:	24000434 	strcs	r0, [r0], #-1076	; 0xfffffbcc
 8000af4:	08000b9c 	stmdaeq	r0, {r2, r3, r4, r7, r8, r9, fp}
 8000af8:	24000434 	strcs	r0, [r0], #-1076	; 0xfffffbcc
 8000afc:	24000474 	strcs	r0, [r0], #-1140	; 0xfffffb8c

08000b00 <ADC_IRQHandler>:
 8000b00:	e7fe      	b.n	8000b00 <ADC_IRQHandler>
	...

08000b04 <_exit>:
 8000b04:	eafffffe 	b	8000b04 <_exit>

08000b08 <__EH_FRAME_BEGIN__>:
 8000b08:	00000000 	andeq	r0, r0, r0

08000b0c <_init>:
 8000b0c:	e1a0c00d 	mov	ip, sp
 8000b10:	e92ddff8 	push	{r3, r4, r5, r6, r7, r8, r9, sl, fp, ip, lr, pc}
 8000b14:	e24cb004 	sub	fp, ip, #4
 8000b18:	e24bd028 	sub	sp, fp, #40	; 0x28
 8000b1c:	e89d6ff0 	ldm	sp, {r4, r5, r6, r7, r8, r9, sl, fp, sp, lr}
 8000b20:	e12fff1e 	bx	lr

08000b24 <_fini>:
 8000b24:	e1a0c00d 	mov	ip, sp
 8000b28:	e92ddff8 	push	{r3, r4, r5, r6, r7, r8, r9, sl, fp, ip, lr, pc}
 8000b2c:	e24cb004 	sub	fp, ip, #4
 8000b30:	e24bd028 	sub	sp, fp, #40	; 0x28
 8000b34:	e89d6ff0 	ldm	sp, {r4, r5, r6, r7, r8, r9, sl, fp, sp, lr}
 8000b38:	e12fff1e 	bx	lr

Disassembly of section .rodata:

08000b3c <all_implied_fbits>:
 8000b3c:	3e0b3e3b 	mcrcc	14, 0, r3, cr11, cr11, {1}
 8000b40:	3e253e10 	mcrcc	14, 1, r3, cr5, cr0, {0}
 8000b44:	3e033e33 	mcrcc	14, 0, r3, cr3, cr3, {1}
 8000b48:	3e143e06 	cdpcc	14, 1, cr3, cr4, cr6, {0}
 8000b4c:	3e0d3e0e 	cdpcc	14, 0, cr3, cr13, cr14, {0}
 8000b50:	3e123e24 	cdpcc	14, 1, cr3, cr2, cr4, {1}
 8000b54:	3e023e27 	cdpcc	14, 0, cr3, cr2, cr7, {1}
 8000b58:	3e093e18 	mcrcc	14, 0, r3, cr9, cr8, {0}
 8000b5c:	00003e0a 	andeq	r3, r0, sl, lsl #28

08000b60 <all_implied_fbits>:
 8000b60:	3e0b3e3b 	mcrcc	14, 0, r3, cr11, cr11, {1}
 8000b64:	3e253e10 	mcrcc	14, 1, r3, cr5, cr0, {0}
 8000b68:	3e033e33 	mcrcc	14, 0, r3, cr3, cr3, {1}
 8000b6c:	3e143e06 	cdpcc	14, 1, cr3, cr4, cr6, {0}
 8000b70:	3e0d3e0e 	cdpcc	14, 0, cr3, cr13, cr14, {0}
 8000b74:	3e123e24 	cdpcc	14, 1, cr3, cr2, cr4, {1}
 8000b78:	3e023e27 	cdpcc	14, 0, cr3, cr2, cr7, {1}
 8000b7c:	3e093e18 	mcrcc	14, 0, r3, cr9, cr8, {0}
 8000b80:	00003e0a 	andeq	r3, r0, sl, lsl #28

08000b84 <_global_impure_ptr>:
 8000b84:	24000008 	strcs	r0, [r0], #-8

Disassembly of section .ARM:

08000b88 <__exidx_start>:
 8000b88:	7ffff780 	svcvc	0x00fff780
 8000b8c:	00000001 	andeq	r0, r0, r1

Disassembly of section .init_array:

08000b90 <__init_array_start>:
 8000b90:	08000800 	stmdaeq	r0, {fp}

08000b94 <__frame_dummy_init_array_entry>:
 8000b94:	080002d8 	stmdaeq	r0, {r3, r4, r6, r7, r9}

Disassembly of section .fini_array:

08000b98 <__do_global_dtors_aux_fini_array_entry>:
 8000b98:	08000298 	stmdaeq	r0, {r3, r4, r7, r9}

Disassembly of section .data:

24000000 <__dso_handle>:
24000000:	00000000 	andeq	r0, r0, r0

24000004 <_impure_ptr>:
24000004:	24000008 	strcs	r0, [r0], #-8

24000008 <impure_data>:
24000008:	00000000 	andeq	r0, r0, r0
2400000c:	240002f4 	strcs	r0, [r0], #-756	; 0xfffffd0c
24000010:	2400035c 	strcs	r0, [r0], #-860	; 0xfffffca4
24000014:	240003c4 	strcs	r0, [r0], #-964	; 0xfffffc3c
	...
240000b0:	00000001 	andeq	r0, r0, r1
240000b4:	00000000 	andeq	r0, r0, r0
240000b8:	abcd330e 	blge	2334ccf8 <_sidata+0x1b34c15c>
240000bc:	e66d1234 			; <UNDEFINED> instruction: 0xe66d1234
240000c0:	0005deec 	andeq	sp, r5, ip, ror #29
240000c4:	0000000b 	andeq	r0, r0, fp
	...

24000430 <__atexit_recursive_mutex>:
24000430:	24000458 	strcs	r0, [r0], #-1112	; 0xfffffba8

Disassembly of section .bss:

24000434 <__bss_start__>:
24000434:	00000000 	andeq	r0, r0, r0

24000438 <object.0>:
	...

24000450 <__lock___arc4random_mutex>:
24000450:	00000000 	andeq	r0, r0, r0

24000454 <__lock___at_quick_exit_mutex>:
24000454:	00000000 	andeq	r0, r0, r0

24000458 <__lock___atexit_recursive_mutex>:
24000458:	00000000 	andeq	r0, r0, r0

2400045c <__lock___dd_hash_mutex>:
2400045c:	00000000 	andeq	r0, r0, r0

24000460 <__lock___env_recursive_mutex>:
24000460:	00000000 	andeq	r0, r0, r0

24000464 <__lock___malloc_recursive_mutex>:
24000464:	00000000 	andeq	r0, r0, r0

24000468 <__lock___sfp_recursive_mutex>:
24000468:	00000000 	andeq	r0, r0, r0

2400046c <__lock___sinit_recursive_mutex>:
2400046c:	00000000 	andeq	r0, r0, r0

24000470 <__lock___tz_mutex>:
24000470:	00000000 	andeq	r0, r0, r0

Disassembly of section ._user_heap_stack:

24000474 <._user_heap_stack>:
	...

Disassembly of section .lwip_sec:

30000000 <.lwip_sec>:
	...

Disassembly of section .ARM.attributes:

00000000 <.ARM.attributes>:
   0:	00002b41 	andeq	r2, r0, r1, asr #22
   4:	61656100 	cmnvs	r5, r0, lsl #2
   8:	01006962 	tsteq	r0, r2, ror #18
   c:	00000021 	andeq	r0, r0, r1, lsr #32
  10:	2d453705 	stclcs	7, cr3, [r5, #-20]	; 0xffffffec
  14:	0d06004d 	stceq	0, cr0, [r6, #-308]	; 0xfffffecc
  18:	01084d07 	tsteq	r8, r7, lsl #26
  1c:	04120209 	ldreq	r0, [r2], #-521	; 0xfffffdf7
  20:	01150114 	tsteq	r5, r4, lsl r1
  24:	01180317 	tsteq	r8, r7, lsl r3
  28:	0122011a 			; <UNDEFINED> instruction: 0x0122011a

Disassembly of section .debug_frame:

00000000 <.debug_frame>:
   0:	0000000c 	andeq	r0, r0, ip
   4:	ffffffff 			; <UNDEFINED> instruction: 0xffffffff
   8:	7c020001 	stcvc	0, cr0, [r2], {1}
   c:	000d0c0e 	andeq	r0, sp, lr, lsl #24
  10:	00000014 	andeq	r0, r0, r4, lsl r0
  14:	00000000 	andeq	r0, r0, r0
  18:	08000628 	stmdaeq	r0, {r3, r5, r9, sl}
  1c:	00000034 	andeq	r0, r0, r4, lsr r0
  20:	84080e42 	strhi	r0, [r8], #-3650	; 0xfffff1be
  24:	00018e02 	andeq	r8, r1, r2, lsl #28
  28:	0000000c 	andeq	r0, r0, ip
  2c:	ffffffff 			; <UNDEFINED> instruction: 0xffffffff
  30:	7c020001 	stcvc	0, cr0, [r2], {1}
  34:	000d0c0e 	andeq	r0, sp, lr, lsl #24
  38:	00000020 	andeq	r0, r0, r0, lsr #32
  3c:	00000028 	andeq	r0, r0, r8, lsr #32
  40:	0800065c 	stmdaeq	r0, {r2, r3, r4, r6, r9, sl}
  44:	00000088 	andeq	r0, r0, r8, lsl #1
  48:	84100e42 	ldrhi	r0, [r0], #-3650	; 0xfffff1be
  4c:	86038504 	strhi	r8, [r3], -r4, lsl #10
  50:	78018e02 	stmdavc	r1, {r1, r9, sl, fp, pc}
  54:	c4c5c6ce 	strbgt	ip, [r5], #1742	; 0x6ce
  58:	0000000e 	andeq	r0, r0, lr
  5c:	0000000c 	andeq	r0, r0, ip
  60:	ffffffff 			; <UNDEFINED> instruction: 0xffffffff
  64:	7c020001 	stcvc	0, cr0, [r2], {1}
  68:	000d0c0e 	andeq	r0, sp, lr, lsl #24
  6c:	00000034 	andeq	r0, r0, r4, lsr r0
  70:	0000005c 	andeq	r0, r0, ip, asr r0
  74:	080006e4 	stmdaeq	r0, {r2, r5, r6, r7, r9, sl}
  78:	0000011c 	andeq	r0, r0, ip, lsl r1
  7c:	840c0e62 	strhi	r0, [ip], #-3682	; 0xfffff19e
  80:	8e028503 	cfsh32hi	mvfx8, mvfx2, #3
  84:	ce4e0201 	cdpgt	2, 4, cr0, cr14, cr1, {0}
  88:	000ec4c5 	andeq	ip, lr, r5, asr #9
  8c:	840c0e52 	strhi	r0, [ip], #-3666	; 0xfffff1ae
  90:	8e028503 	cfsh32hi	mvfx8, mvfx2, #3
  94:	000e4401 	andeq	r4, lr, r1, lsl #8
  98:	44cec5c4 	strbmi	ip, [lr], #1476	; 0x5c4
  9c:	03840c0e 	orreq	r0, r4, #3584	; 0xe00
  a0:	018e0285 	orreq	r0, lr, r5, lsl #5
  a4:	0000000c 	andeq	r0, r0, ip
  a8:	ffffffff 			; <UNDEFINED> instruction: 0xffffffff
  ac:	7c020001 	stcvc	0, cr0, [r2], {1}
  b0:	000d0c0e 	andeq	r0, sp, lr, lsl #24
  b4:	00000018 	andeq	r0, r0, r8, lsl r0
  b8:	000000a4 	andeq	r0, r0, r4, lsr #1
  bc:	08000800 	stmdaeq	r0, {fp}
  c0:	00000028 	andeq	r0, r0, r8, lsr #32
  c4:	84080e48 	strhi	r0, [r8], #-3656	; 0xfffff1b8
  c8:	46018e02 	strmi	r8, [r1], -r2, lsl #28
  cc:	000ec4ce 	andeq	ip, lr, lr, asr #9
  d0:	00000038 	andeq	r0, r0, r8, lsr r0
  d4:	000000a4 	andeq	r0, r0, r4, lsr #1
  d8:	08000828 	stmdaeq	r0, {r3, r5, fp}
  dc:	00000138 	andeq	r0, r0, r8, lsr r1
  e0:	84240e42 	strthi	r0, [r4], #-3650	; 0xfffff1be
  e4:	86088509 	strhi	r8, [r8], -r9, lsl #10
  e8:	88068707 	stmdahi	r6, {r0, r1, r2, r8, r9, sl, pc}
  ec:	8a048905 	bhi	122508 <_Min_Stack_Size+0x122108>
  f0:	8e028b03 	vmlahi.f64	d8, d2, d3
  f4:	300e4601 	andcc	r4, lr, r1, lsl #12
  f8:	0e0a6c02 	cdpeq	12, 0, cr6, cr10, cr2, {0}
  fc:	cbce4224 	blgt	ff390994 <_estack+0xdb310994>
 100:	c7c8c9ca 	strbgt	ip, [r8, sl, asr #19]
 104:	0ec4c5c6 	cdpeq	5, 12, cr12, cr4, cr6, {6}
 108:	000b4200 	andeq	r4, fp, r0, lsl #4
 10c:	0000000c 	andeq	r0, r0, ip
 110:	ffffffff 			; <UNDEFINED> instruction: 0xffffffff
 114:	7c020001 	stcvc	0, cr0, [r2], {1}
 118:	000d0c0e 	andeq	r0, sp, lr, lsl #24
 11c:	00000018 	andeq	r0, r0, r8, lsl r0
 120:	0000010c 	andeq	r0, r0, ip, lsl #2
 124:	08000960 	stmdaeq	r0, {r5, r6, r8, fp}
 128:	00000020 	andeq	r0, r0, r0, lsr #32
 12c:	84080e44 	strhi	r0, [r8], #-3652	; 0xfffff1bc
 130:	4a018e02 	bmi	63940 <_Min_Stack_Size+0x63540>
 134:	000ec4ce 	andeq	ip, lr, lr, asr #9
 138:	0000000c 	andeq	r0, r0, ip
 13c:	ffffffff 			; <UNDEFINED> instruction: 0xffffffff
 140:	7c020001 	stcvc	0, cr0, [r2], {1}
 144:	000d0c0e 	andeq	r0, sp, lr, lsl #24
 148:	00000020 	andeq	r0, r0, r0, lsr #32
 14c:	00000138 	andeq	r0, r0, r8, lsr r1
 150:	08000980 	stmdaeq	r0, {r7, r8, fp}
 154:	00000044 	andeq	r0, r0, r4, asr #32
 158:	84100e42 	ldrhi	r0, [r0], #-3650	; 0xfffff1be
 15c:	86038504 	strhi	r8, [r3], -r4, lsl #10
 160:	5a018e02 	bpl	63970 <_Min_Stack_Size+0x63570>
 164:	c4c5c6ce 	strbgt	ip, [r5], #1742	; 0x6ce
 168:	0000000e 	andeq	r0, r0, lr
 16c:	0000000c 	andeq	r0, r0, ip
 170:	ffffffff 			; <UNDEFINED> instruction: 0xffffffff
 174:	7c020001 	stcvc	0, cr0, [r2], {1}
 178:	000d0c0e 	andeq	r0, sp, lr, lsl #24
 17c:	0000000c 	andeq	r0, r0, ip
 180:	0000016c 	andeq	r0, r0, ip, ror #2
 184:	080009c4 	stmdaeq	r0, {r2, r6, r7, r8, fp}
 188:	00000004 	andeq	r0, r0, r4
 18c:	0000000c 	andeq	r0, r0, ip
 190:	0000016c 	andeq	r0, r0, ip, ror #2
 194:	080009c8 	stmdaeq	r0, {r3, r6, r7, r8, fp}
 198:	00000004 	andeq	r0, r0, r4
 19c:	0000000c 	andeq	r0, r0, ip
 1a0:	0000016c 	andeq	r0, r0, ip, ror #2
 1a4:	080009cc 	stmdaeq	r0, {r2, r3, r6, r7, r8, fp}
 1a8:	00000004 	andeq	r0, r0, r4
 1ac:	0000000c 	andeq	r0, r0, ip
 1b0:	0000016c 	andeq	r0, r0, ip, ror #2
 1b4:	080009d0 	stmdaeq	r0, {r4, r6, r7, r8, fp}
 1b8:	00000004 	andeq	r0, r0, r4
 1bc:	0000000c 	andeq	r0, r0, ip
 1c0:	0000016c 	andeq	r0, r0, ip, ror #2
 1c4:	080009d4 	stmdaeq	r0, {r2, r4, r6, r7, r8, fp}
 1c8:	00000004 	andeq	r0, r0, r4
 1cc:	0000000c 	andeq	r0, r0, ip
 1d0:	0000016c 	andeq	r0, r0, ip, ror #2
 1d4:	080009d8 	stmdaeq	r0, {r3, r4, r6, r7, r8, fp}
 1d8:	00000004 	andeq	r0, r0, r4
 1dc:	0000000c 	andeq	r0, r0, ip
 1e0:	0000016c 	andeq	r0, r0, ip, ror #2
 1e4:	080009dc 	stmdaeq	r0, {r2, r3, r4, r6, r7, r8, fp}
 1e8:	00000008 	andeq	r0, r0, r8
 1ec:	0000000c 	andeq	r0, r0, ip
 1f0:	0000016c 	andeq	r0, r0, ip, ror #2
 1f4:	080009e4 	stmdaeq	r0, {r2, r5, r6, r7, r8, fp}
 1f8:	00000008 	andeq	r0, r0, r8
 1fc:	0000000c 	andeq	r0, r0, ip
 200:	0000016c 	andeq	r0, r0, ip, ror #2
 204:	080009ec 	stmdaeq	r0, {r2, r3, r5, r6, r7, r8, fp}
 208:	00000004 	andeq	r0, r0, r4
 20c:	0000000c 	andeq	r0, r0, ip
 210:	0000016c 	andeq	r0, r0, ip, ror #2
 214:	080009f0 	stmdaeq	r0, {r4, r5, r6, r7, r8, fp}
 218:	00000004 	andeq	r0, r0, r4
 21c:	0000000c 	andeq	r0, r0, ip
 220:	ffffffff 			; <UNDEFINED> instruction: 0xffffffff
 224:	7c020001 	stcvc	0, cr0, [r2], {1}
 228:	000d0c0e 	andeq	r0, sp, lr, lsl #24
 22c:	00000028 	andeq	r0, r0, r8, lsr #32
 230:	0000021c 	andeq	r0, r0, ip, lsl r2
 234:	080009f4 	stmdaeq	r0, {r2, r4, r5, r6, r7, r8, fp}
 238:	000000bc 	strheq	r0, [r0], -ip
 23c:	84180e42 	ldrhi	r0, [r8], #-3650	; 0xfffff1be
 240:	86058506 	strhi	r8, [r5], -r6, lsl #10
 244:	88038704 	stmdahi	r3, {r2, r8, r9, sl, pc}
 248:	74018e02 	strvc	r8, [r1], #-3586	; 0xfffff1fe
 24c:	c7c8ce0a 	strbgt	ip, [r8, sl, lsl #28]
 250:	0ec4c5c6 	cdpeq	5, 12, cr12, cr4, cr6, {6}
 254:	000b4200 	andeq	r4, fp, r0, lsl #4
 258:	0000000c 	andeq	r0, r0, ip
 25c:	ffffffff 			; <UNDEFINED> instruction: 0xffffffff
 260:	7c020001 	stcvc	0, cr0, [r2], {1}
 264:	000d0c0e 	andeq	r0, sp, lr, lsl #24
 268:	00000018 	andeq	r0, r0, r8, lsl r0
 26c:	00000258 	andeq	r0, r0, r8, asr r2
 270:	08000440 	stmdaeq	r0, {r6, sl}
 274:	0000007c 	andeq	r0, r0, ip, ror r0
 278:	87040e41 	strhi	r0, [r4, -r1, asr #28]
 27c:	180e4101 	stmdane	lr, {r0, r8, lr}
 280:	00070d41 	andeq	r0, r7, r1, asr #26
 284:	00000024 	andeq	r0, r0, r4, lsr #32
 288:	00000258 	andeq	r0, r0, r8, asr r2
 28c:	080004bc 	stmdaeq	r0, {r2, r3, r4, r5, r7, sl}
 290:	00000134 	andeq	r0, r0, r4, lsr r1
 294:	87080e41 	strhi	r0, [r8, -r1, asr #28]
 298:	41018e02 	tstmi	r1, r2, lsl #28
 29c:	4101e80e 	tstmi	r1, lr, lsl #16
 2a0:	9202070d 	andls	r0, r2, #3407872	; 0x340000
 2a4:	0d41080e 	stcleq	8, cr0, [r1, #-56]	; 0xffffffc8
 2a8:	0000000d 	andeq	r0, r0, sp
 2ac:	00000024 	andeq	r0, r0, r4, lsr #32
 2b0:	00000258 	andeq	r0, r0, r8, asr r2
 2b4:	080005f0 	stmdaeq	r0, {r4, r5, r6, r7, r8, sl}
 2b8:	00000018 	andeq	r0, r0, r8, lsl r0
 2bc:	87040e41 	strhi	r0, [r4, -r1, asr #28]
 2c0:	100e4101 	andne	r4, lr, r1, lsl #2
 2c4:	44070d41 	strmi	r0, [r7], #-3393	; 0xfffff2bf
 2c8:	0d41040e 	cfstrdeq	mvd0, [r1, #-56]	; 0xffffffc8
 2cc:	0ec7410d 	poleqs	f4, f7, #5.0
 2d0:	00000000 	andeq	r0, r0, r0
 2d4:	0000001c 	andeq	r0, r0, ip, lsl r0
 2d8:	00000258 	andeq	r0, r0, r8, asr r2
 2dc:	08000608 	stmdaeq	r0, {r3, r9, sl}
 2e0:	0000000c 	andeq	r0, r0, ip
 2e4:	87040e41 	strhi	r0, [r4, -r1, asr #28]
 2e8:	070d4101 	streq	r4, [sp, -r1, lsl #2]
 2ec:	410d0d42 	tstmi	sp, r2, asr #26
 2f0:	00000ec7 	andeq	r0, r0, r7, asr #29
 2f4:	0000000c 	andeq	r0, r0, ip
 2f8:	ffffffff 			; <UNDEFINED> instruction: 0xffffffff
 2fc:	7c020001 	stcvc	0, cr0, [r2], {1}
 300:	000d0c0e 	andeq	r0, sp, lr, lsl #24
 304:	0000000c 	andeq	r0, r0, ip
 308:	000002f4 	strdeq	r0, [r0], -r4
 30c:	08000b04 	stmdaeq	r0, {r2, r8, r9, fp}
 310:	00000004 	andeq	r0, r0, r4

Disassembly of section .debug_info:

00000000 <.debug_info>:
   0:	00000b0b 	andeq	r0, r0, fp, lsl #22
   4:	00000004 	andeq	r0, r0, r4
   8:	01040000 	mrseq	r0, (UNDEF: 4)
   c:	000001d1 	ldrdeq	r0, [r0], -r1
  10:	0002c90c 	andeq	ip, r2, ip, lsl #18
  14:	00023300 	andeq	r3, r2, r0, lsl #6
  18:	00044000 	andeq	r4, r4, r0
  1c:	0001d408 	andeq	sp, r1, r8, lsl #8
  20:	00000000 	andeq	r0, r0, r0
  24:	05020200 	streq	r0, [r2, #-512]	; 0xfffffe00
  28:	00000319 	andeq	r0, r0, r9, lsl r3
  2c:	1d060102 	stfnes	f0, [r6, #-8]
  30:	02000004 	andeq	r0, r0, #4
  34:	041b0801 	ldreq	r0, [fp], #-2049	; 0xfffff7ff
  38:	02020000 	andeq	r0, r2, #0
  3c:	00028907 	andeq	r8, r2, r7, lsl #18
  40:	05040200 	streq	r0, [r4, #-512]	; 0xfffffe00
  44:	00000149 	andeq	r0, r0, r9, asr #2
  48:	00018a03 	andeq	r8, r1, r3, lsl #20
  4c:	194f0200 	stmdbne	pc, {r9}^	; <UNPREDICTABLE>
  50:	00000054 	andeq	r0, r0, r4, asr r0
  54:	6e070402 	cdpvs	4, 0, cr0, cr7, cr2, {0}
  58:	02000000 	andeq	r0, r0, #0
  5c:	01440508 	cmpeq	r4, r8, lsl #10
  60:	08020000 	stmdaeq	r2, {}	; <UNPREDICTABLE>
  64:	00006907 	andeq	r6, r0, r7, lsl #18
  68:	05040400 	streq	r0, [r4, #-1024]	; 0xfffffc00
  6c:	00746e69 	rsbseq	r6, r4, r9, ror #28
  70:	73070402 	movwvc	r0, #29698	; 0x7402
  74:	03000000 	movweq	r0, #0
  78:	0000018c 	andeq	r0, r0, ip, lsl #3
  7c:	48143003 	ldmdami	r4, {r0, r1, ip, sp}
  80:	05000000 	streq	r0, [r0, #-0]
  84:	00000077 	andeq	r0, r0, r7, ror r0
  88:	00007706 	andeq	r7, r0, r6, lsl #14
  8c:	00770700 	rsbseq	r0, r7, r0, lsl #14
  90:	009d0000 	addseq	r0, sp, r0
  94:	70080000 	andvc	r0, r8, r0
  98:	03000000 	movweq	r0, #0
  9c:	00830700 	addeq	r0, r3, r0, lsl #14
  a0:	00ad0000 	adceq	r0, sp, r0
  a4:	70080000 	andvc	r0, r8, r0
  a8:	03000000 	movweq	r0, #0
  ac:	009d0500 	addseq	r0, sp, r0, lsl #10
  b0:	83070000 	movwhi	r0, #28672	; 0x7000
  b4:	c2000000 	andgt	r0, r0, #0
  b8:	08000000 	stmdaeq	r0, {}	; <UNPREDICTABLE>
  bc:	00000070 	andeq	r0, r0, r0, ror r0
  c0:	b2050001 	andlt	r0, r5, #1
  c4:	07000000 	streq	r0, [r0, -r0]
  c8:	00000077 	andeq	r0, r0, r7, ror r0
  cc:	000000d7 	ldrdeq	r0, [r0], -r7
  d0:	00007008 	andeq	r7, r0, r8
  d4:	09000800 	stmdbeq	r0, {fp}
  d8:	04300428 	ldrteq	r0, [r0], #-1064	; 0xfffffbd8
  dc:	00016009 	andeq	r6, r1, r9
  e0:	00630a00 	rsbeq	r0, r3, r0, lsl #20
  e4:	32040000 	andcc	r0, r4, #0
  e8:	00831104 	addeq	r1, r3, r4, lsl #2
  ec:	0a000000 	beq	f4 <_Min_Heap_Size-0x10c>
  f0:	0000003b 	andeq	r0, r0, fp, lsr r0
  f4:	11043304 	tstne	r4, r4, lsl #6
  f8:	00000083 	andeq	r0, r0, r3, lsl #1
  fc:	01820a04 	orreq	r0, r2, r4, lsl #20
 100:	34040000 	strcc	r0, [r4], #-0
 104:	00831104 	addeq	r1, r3, r4, lsl #2
 108:	0a080000 	beq	200110 <_Min_Stack_Size+0x1ffd10>
 10c:	0000008c 	andeq	r0, r0, ip, lsl #1
 110:	11043504 	tstne	r4, r4, lsl #10
 114:	00000083 	andeq	r0, r0, r3, lsl #1
 118:	44490b0c 	strbmi	r0, [r9], #-2828	; 0xfffff4f4
 11c:	36040052 			; <UNDEFINED> instruction: 0x36040052
 120:	00831104 	addeq	r1, r3, r4, lsl #2
 124:	0b100000 	bleq	40012c <_Min_Stack_Size+0x3ffd2c>
 128:	0052444f 	subseq	r4, r2, pc, asr #8
 12c:	11043704 	tstne	r4, r4, lsl #14
 130:	00000083 	andeq	r0, r0, r3, lsl #1
 134:	00d20a14 	sbcseq	r0, r2, r4, lsl sl
 138:	38040000 	stmdacc	r4, {}	; <UNPREDICTABLE>
 13c:	00831104 	addeq	r1, r3, r4, lsl #2
 140:	0a180000 	beq	600148 <_Min_Stack_Size+0x5ffd48>
 144:	00000010 	andeq	r0, r0, r0, lsl r0
 148:	11043904 	tstne	r4, r4, lsl #18
 14c:	00000083 	andeq	r0, r0, r3, lsl #1
 150:	46410b1c 			; <UNDEFINED> instruction: 0x46410b1c
 154:	3a040052 	bcc	1002a4 <_Min_Stack_Size+0xffea4>
 158:	00c21104 	sbceq	r1, r2, r4, lsl #2
 15c:	00200000 	eoreq	r0, r0, r0
 160:	0001a70c 	andeq	sl, r1, ip, lsl #14
 164:	043b0400 	ldrteq	r0, [fp], #-1024	; 0xfffffc00
 168:	0000d703 	andeq	sp, r0, r3, lsl #14
 16c:	03480d00 	movteq	r0, #36096	; 0x8d00
 170:	09044c04 	stmdbeq	r4, {r2, sl, fp, lr}
 174:	00000331 	andeq	r0, r0, r1, lsr r3
 178:	00037e0a 	andeq	r7, r3, sl, lsl #28
 17c:	044e0400 	strbeq	r0, [lr], #-1024	; 0xfffffc00
 180:	0000770b 	andeq	r7, r0, fp, lsl #14
 184:	700a0000 	andvc	r0, sl, r0
 188:	04000004 	streq	r0, [r0], #-4
 18c:	8310044f 	tsthi	r0, #1325400064	; 0x4f000000
 190:	04000000 	streq	r0, [r0], #-0
 194:	00058f0a 	andeq	r8, r5, sl, lsl #30
 198:	04500400 	ldrbeq	r0, [r0], #-1024	; 0xfffffc00
 19c:	0000ad10 	andeq	sl, r0, r0, lsl sp
 1a0:	5b0a0800 	blpl	2821a8 <_Min_Stack_Size+0x281da8>
 1a4:	04000004 	streq	r0, [r0], #-4
 1a8:	83100451 	tsthi	r0, #1358954496	; 0x51000000
 1ac:	18000000 	stmdane	r0, {}	; <UNPREDICTABLE>
 1b0:	0003880a 	andeq	r8, r3, sl, lsl #16
 1b4:	04520400 	ldrbeq	r0, [r2], #-1024	; 0xfffffc00
 1b8:	0000770b 	andeq	r7, r0, fp, lsl #14
 1bc:	cc0a1c00 	stcgt	12, cr1, [sl], {-0}
 1c0:	04000000 	streq	r0, [r0], #-0
 1c4:	83100453 	tsthi	r0, #1392508928	; 0x53000000
 1c8:	20000000 	andcs	r0, r0, r0
 1cc:	00016d0a 	andeq	r6, r1, sl, lsl #26
 1d0:	04540400 	ldrbeq	r0, [r4], #-1024	; 0xfffffc00
 1d4:	00008310 	andeq	r8, r0, r0, lsl r3
 1d8:	690a2400 	stmdbvs	sl, {sl, sp}
 1dc:	04000005 	streq	r0, [r0], #-5
 1e0:	83100455 	tsthi	r0, #1426063360	; 0x55000000
 1e4:	28000000 	stmdacs	r0, {}	; <UNPREDICTABLE>
 1e8:	0001a10a 	andeq	sl, r1, sl, lsl #2
 1ec:	04560400 	ldrbeq	r0, [r6], #-1024	; 0xfffffc00
 1f0:	00008310 	andeq	r8, r0, r0, lsl r3
 1f4:	920a2c00 	andls	r2, sl, #0, 24
 1f8:	04000003 	streq	r0, [r0], #-3
 1fc:	31100457 	tstcc	r0, r7, asr r4
 200:	30000003 	andcc	r0, r0, r3
 204:	0003790e 	andeq	r7, r3, lr, lsl #18
 208:	04580400 	ldrbeq	r0, [r8], #-1024	; 0xfffffc00
 20c:	00008311 	andeq	r8, r0, r1, lsl r3
 210:	0e012400 	cfcpyseq	mvf2, mvf1
 214:	00000487 	andeq	r0, r0, r7, lsl #9
 218:	10045904 	andne	r5, r4, r4, lsl #18
 21c:	00000341 	andeq	r0, r0, r1, asr #6
 220:	550f0128 	strpl	r0, [pc, #-296]	; 100 <_Min_Heap_Size-0x100>
 224:	04003052 	streq	r3, [r0], #-82	; 0xffffffae
 228:	8310045a 	tsthi	r0, #1509949440	; 0x5a000000
 22c:	00000000 	andeq	r0, r0, r0
 230:	52550f03 	subspl	r0, r5, #3, 30
 234:	5b040031 	blpl	100300 <_Min_Stack_Size+0xfff00>
 238:	00831004 	addeq	r1, r3, r4
 23c:	03040000 	movweq	r0, #16384	; 0x4000
 240:	3252550f 	subscc	r5, r2, #62914560	; 0x3c00000
 244:	045c0400 	ldrbeq	r0, [ip], #-1024	; 0xfffffc00
 248:	00008310 	andeq	r8, r0, r0, lsl r3
 24c:	0f030800 	svceq	0x00030800
 250:	00335255 	eorseq	r5, r3, r5, asr r2
 254:	10045d04 	andne	r5, r4, r4, lsl #26
 258:	00000083 	andeq	r0, r0, r3, lsl #1
 25c:	550f030c 	strpl	r0, [pc, #-780]	; ffffff58 <_estack+0xdbf7ff58>
 260:	04003452 	streq	r3, [r0], #-1106	; 0xfffffbae
 264:	8310045e 	tsthi	r0, #1577058304	; 0x5e000000
 268:	10000000 	andne	r0, r0, r0
 26c:	52550f03 	subspl	r0, r5, #3, 30
 270:	5f040035 	svcpl	0x00040035
 274:	00831004 	addeq	r1, r3, r4
 278:	03140000 	tsteq	r4, #0
 27c:	3652550f 	ldrbcc	r5, [r2], -pc, lsl #10
 280:	04600400 	strbteq	r0, [r0], #-1024	; 0xfffffc00
 284:	00008310 	andeq	r8, r0, r0, lsl r3
 288:	0f031800 	svceq	0x00031800
 28c:	00375255 	eorseq	r5, r7, r5, asr r2
 290:	10046104 	andne	r6, r4, r4, lsl #2
 294:	00000083 	andeq	r0, r0, r3, lsl #1
 298:	550f031c 	strpl	r0, [pc, #-796]	; ffffff84 <_estack+0xdbf7ff84>
 29c:	04003852 	streq	r3, [r0], #-2130	; 0xfffff7ae
 2a0:	83100462 	tsthi	r0, #1644167168	; 0x62000000
 2a4:	20000000 	andcs	r0, r0, r0
 2a8:	52550f03 	subspl	r0, r5, #3, 30
 2ac:	63040039 	movwvs	r0, #16441	; 0x4039
 2b0:	00831004 	addeq	r1, r3, r4
 2b4:	03240000 			; <UNDEFINED> instruction: 0x03240000
 2b8:	0003230e 	andeq	r2, r3, lr, lsl #6
 2bc:	04640400 	strbteq	r0, [r4], #-1024	; 0xfffffc00
 2c0:	00008310 	andeq	r8, r0, r0, lsl r3
 2c4:	0e032800 	cdpeq	8, 0, cr2, cr3, cr0, {0}
 2c8:	00000328 	andeq	r0, r0, r8, lsr #6
 2cc:	10046504 	andne	r6, r4, r4, lsl #10
 2d0:	00000083 	andeq	r0, r0, r3, lsl #1
 2d4:	080e032c 	stmdaeq	lr, {r2, r3, r5, r8, r9}
 2d8:	04000005 	streq	r0, [r0], #-5
 2dc:	83100466 	tsthi	r0, #1711276032	; 0x66000000
 2e0:	30000000 	andcc	r0, r0, r0
 2e4:	050d0e03 	streq	r0, [sp, #-3587]	; 0xfffff1fd
 2e8:	67040000 	strvs	r0, [r4, -r0]
 2ec:	00831004 	addeq	r1, r3, r4
 2f0:	03340000 	teqeq	r4, #0
 2f4:	0005120e 	andeq	r1, r5, lr, lsl #4
 2f8:	04680400 	strbteq	r0, [r8], #-1024	; 0xfffffc00
 2fc:	00008310 	andeq	r8, r0, r0, lsl r3
 300:	0e033800 	cdpeq	8, 0, cr3, cr3, cr0, {0}
 304:	00000517 	andeq	r0, r0, r7, lsl r5
 308:	10046904 	andne	r6, r4, r4, lsl #18
 30c:	00000083 	andeq	r0, r0, r3, lsl #1
 310:	1c0e033c 	stcne	3, cr0, [lr], {60}	; 0x3c
 314:	04000005 	streq	r0, [r0], #-5
 318:	8310046a 	tsthi	r0, #1778384896	; 0x6a000000
 31c:	40000000 	andmi	r0, r0, r0
 320:	05210e03 	streq	r0, [r1, #-3587]!	; 0xfffff1fd
 324:	6b040000 	blvs	10032c <_Min_Stack_Size+0xfff2c>
 328:	00831004 	addeq	r1, r3, r4
 32c:	03440000 	movteq	r0, #16384	; 0x4000
 330:	00770700 	rsbseq	r0, r7, r0, lsl #14
 334:	03410000 	movteq	r0, #4096	; 0x1000
 338:	70080000 	andvc	r0, r8, r0
 33c:	3c000000 	stccc	0, cr0, [r0], {-0}
 340:	00770700 	rsbseq	r0, r7, r0, lsl #14
 344:	03510000 	cmpeq	r1, #0
 348:	70080000 	andvc	r0, r8, r0
 34c:	75000000 	strvc	r0, [r0, #-0]
 350:	040c0c00 	streq	r0, [ip], #-3072	; 0xfffff400
 354:	6d040000 	stcvs	0, cr0, [r4, #-0]
 358:	016d0304 	cmneq	sp, r4, lsl #6
 35c:	300d0000 	andcc	r0, sp, r0
 360:	04fc0401 	ldrbteq	r0, [ip], #1025	; 0x401
 364:	00070009 	andeq	r0, r7, r9
 368:	52430b00 	subpl	r0, r3, #0, 22
 36c:	04fe0400 	ldrbteq	r0, [lr], #1024	; 0x400
 370:	00008310 	andeq	r8, r0, r0, lsl r3
 374:	3c0a0000 	stccc	0, cr0, [sl], {-0}
 378:	04000001 	streq	r0, [r0], #-1
 37c:	831004ff 	tsthi	r0, #-16777216	; 0xff000000
 380:	04000000 	streq	r0, [r0], #-0
 384:	0003730a 	andeq	r7, r3, sl, lsl #6
 388:	05000400 	streq	r0, [r0, #-1024]	; 0xfffffc00
 38c:	00008310 	andeq	r8, r0, r0, lsl r3
 390:	a80a0800 	stmdage	sl, {fp}
 394:	04000000 	streq	r0, [r0], #-0
 398:	83100501 	tsthi	r0, #4194304	; 0x400000
 39c:	0c000000 	stceq	0, cr0, [r0], {-0}
 3a0:	00045b0a 	andeq	r5, r4, sl, lsl #22
 3a4:	05020400 	streq	r0, [r2, #-1024]	; 0xfffffc00
 3a8:	00008310 	andeq	r8, r0, r0, lsl r3
 3ac:	7e0a1000 	cdpvc	0, 0, cr1, cr10, cr0, {0}
 3b0:	04000003 	streq	r0, [r0], #-3
 3b4:	770f0503 	strvc	r0, [pc, -r3, lsl #10]
 3b8:	14000000 	strne	r0, [r0], #-0
 3bc:	0004590a 	andeq	r5, r4, sl, lsl #18
 3c0:	05040400 	streq	r0, [r4, #-1024]	; 0xfffffc00
 3c4:	00008310 	andeq	r8, r0, r0, lsl r3
 3c8:	280a1800 	stmdacs	sl, {fp, ip}
 3cc:	04000000 	streq	r0, [r0], #-0
 3d0:	83100505 	tsthi	r0, #20971520	; 0x1400000
 3d4:	1c000000 	stcne	0, cr0, [r0], {-0}
 3d8:	0004300a 	andeq	r3, r4, sl
 3dc:	05060400 	streq	r0, [r6, #-1024]	; 0xfffffc00
 3e0:	00008310 	andeq	r8, r0, r0, lsl r3
 3e4:	880a2000 	stmdahi	sl, {sp}
 3e8:	04000003 	streq	r0, [r0], #-3
 3ec:	770f0507 	strvc	r0, [pc, -r7, lsl #10]
 3f0:	24000000 	strcs	r0, [r0], #-0
 3f4:	0004480a 	andeq	r4, r4, sl, lsl #16
 3f8:	05080400 	streq	r0, [r8, #-1024]	; 0xfffffc00
 3fc:	00008310 	andeq	r8, r0, r0, lsl r3
 400:	e20a2800 	and	r2, sl, #0, 16
 404:	04000004 	streq	r0, [r0], #-4
 408:	83100509 	tsthi	r0, #37748736	; 0x2400000
 40c:	2c000000 	stccs	0, cr0, [r0], {-0}
 410:	0003a30a 	andeq	sl, r3, sl, lsl #6
 414:	050a0400 	streq	r0, [sl, #-1024]	; 0xfffffc00
 418:	00008310 	andeq	r8, r0, r0, lsl r3
 41c:	1c0a3000 	stcne	0, cr3, [sl], {-0}
 420:	04000001 	streq	r0, [r0], #-1
 424:	8310050b 	tsthi	r0, #46137344	; 0x2c00000
 428:	34000000 	strcc	r0, [r0], #-0
 42c:	0001590a 	andeq	r5, r1, sl, lsl #18
 430:	050c0400 	streq	r0, [ip, #-1024]	; 0xfffffc00
 434:	00008310 	andeq	r8, r0, r0, lsl r3
 438:	d80a3800 	stmdale	sl, {fp, ip, sp}
 43c:	04000003 	streq	r0, [r0], #-3
 440:	8310050d 	tsthi	r0, #54525952	; 0x3400000
 444:	3c000000 	stccc	0, cr0, [r0], {-0}
 448:	0005600a 	andeq	r6, r5, sl
 44c:	050e0400 	streq	r0, [lr, #-1024]	; 0xfffffc00
 450:	00008310 	andeq	r8, r0, r0, lsl r3
 454:	b70a4000 	strlt	r4, [sl, -r0]
 458:	04000000 	streq	r0, [r0], #-0
 45c:	8310050f 	tsthi	r0, #62914560	; 0x3c00000
 460:	44000000 	strmi	r0, [r0], #-0
 464:	0003920a 	andeq	r9, r3, sl, lsl #4
 468:	05100400 	ldreq	r0, [r0, #-1024]	; 0xfffffc00
 46c:	00007710 	andeq	r7, r0, r0, lsl r7
 470:	f10a4800 			; <UNDEFINED> instruction: 0xf10a4800
 474:	04000004 	streq	r0, [r0], #-4
 478:	83110511 	tsthi	r1, #71303168	; 0x4400000
 47c:	4c000000 	stcmi	0, cr0, [r0], {-0}
 480:	0003630a 	andeq	r6, r3, sl, lsl #6
 484:	05120400 	ldreq	r0, [r2, #-1024]	; 0xfffffc00
 488:	00008311 	andeq	r8, r0, r1, lsl r3
 48c:	670a5000 	strvs	r5, [sl, -r0]
 490:	04000004 	streq	r0, [r0], #-4
 494:	83110513 	tsthi	r1, #79691776	; 0x4c00000
 498:	54000000 	strpl	r0, [r0], #-0
 49c:	0005000a 	andeq	r0, r5, sl
 4a0:	05140400 	ldreq	r0, [r4, #-1024]	; 0xfffffc00
 4a4:	00008311 	andeq	r8, r0, r1, lsl r3
 4a8:	870a5800 	strhi	r5, [sl, -r0, lsl #16]
 4ac:	04000004 	streq	r0, [r0], #-4
 4b0:	77100515 			; <UNDEFINED> instruction: 0x77100515
 4b4:	5c000000 	stcpl	0, cr0, [r0], {-0}
 4b8:	00019c0a 	andeq	r9, r1, sl, lsl #24
 4bc:	05160400 	ldreq	r0, [r6, #-1024]	; 0xfffffc00
 4c0:	00008311 	andeq	r8, r0, r1, lsl r3
 4c4:	c40a6000 	strgt	r6, [sl], #-0
 4c8:	04000002 	streq	r0, [r0], #-2
 4cc:	83110517 	tsthi	r1, #96468992	; 0x5c00000
 4d0:	64000000 	strvs	r0, [r0], #-0
 4d4:	00001c0a 	andeq	r1, r0, sl, lsl #24
 4d8:	05180400 	ldreq	r0, [r8, #-1024]	; 0xfffffc00
 4dc:	00008311 	andeq	r8, r0, r1, lsl r3
 4e0:	ac0a6800 	stcge	8, cr6, [sl], {-0}
 4e4:	04000003 	streq	r0, [r0], #-3
 4e8:	770f0519 	smladvc	pc, r9, r5, r0	; <UNPREDICTABLE>
 4ec:	6c000000 	stcvs	0, cr0, [r0], {-0}
 4f0:	0000360a 	andeq	r3, r0, sl, lsl #12
 4f4:	051a0400 	ldreq	r0, [sl, #-1024]	; 0xfffffc00
 4f8:	00008311 	andeq	r8, r0, r1, lsl r3
 4fc:	430b7000 	movwmi	r7, #45056	; 0xb000
 500:	04005253 	streq	r5, [r0], #-595	; 0xfffffdad
 504:	8311051b 	tsthi	r1, #113246208	; 0x6c00000
 508:	74000000 	strvc	r0, [r0], #-0
 50c:	0003b60a 	andeq	fp, r3, sl, lsl #12
 510:	051c0400 	ldreq	r0, [ip, #-1024]	; 0xfffffc00
 514:	0000770f 	andeq	r7, r0, pc, lsl #14
 518:	070a7800 	streq	r7, [sl, -r0, lsl #16]
 51c:	04000000 	streq	r0, [r0], #-0
 520:	8310051d 	tsthi	r0, #121634816	; 0x7400000
 524:	7c000000 	stcvc	0, cr0, [r0], {-0}
 528:	0004c20a 	andeq	ip, r4, sl, lsl #4
 52c:	051e0400 	ldreq	r0, [lr, #-1024]	; 0xfffffc00
 530:	00008310 	andeq	r8, r0, r0, lsl r3
 534:	6f0a8000 	svcvs	0x000a8000
 538:	04000002 	streq	r0, [r0], #-2
 53c:	8310051f 	tsthi	r0, #130023424	; 0x7c00000
 540:	84000000 	strhi	r0, [r0], #-0
 544:	0004030a 	andeq	r0, r4, sl, lsl #6
 548:	05200400 	streq	r0, [r0, #-1024]!	; 0xfffffc00
 54c:	00008310 	andeq	r8, r0, r0, lsl r3
 550:	490a8800 	stmdbmi	sl, {fp, pc}
 554:	04000000 	streq	r0, [r0], #-0
 558:	83100521 	tsthi	r0, #138412032	; 0x8400000
 55c:	8c000000 	stchi	0, cr0, [r0], {-0}
 560:	0001bb0a 	andeq	fp, r1, sl, lsl #22
 564:	05220400 	streq	r0, [r2, #-1024]!	; 0xfffffc00
 568:	00008310 	andeq	r8, r0, r0, lsl r3
 56c:	2d0a9000 	stccs	0, cr9, [sl, #-0]
 570:	04000005 	streq	r0, [r0], #-5
 574:	83100523 	tsthi	r0, #146800640	; 0x8c00000
 578:	94000000 	strls	r0, [r0], #-0
 57c:	0003340a 	andeq	r3, r3, sl, lsl #8
 580:	05240400 	streq	r0, [r4, #-1024]!	; 0xfffffc00
 584:	00008310 	andeq	r8, r0, r0, lsl r3
 588:	d20a9800 	andle	r9, sl, #0, 16
 58c:	04000004 	streq	r0, [r0], #-4
 590:	83100525 	tsthi	r0, #155189248	; 0x9400000
 594:	9c000000 	stcls	0, cr0, [r0], {-0}
 598:	5243470b 	subpl	r4, r3, #2883584	; 0x2c0000
 59c:	05260400 	streq	r0, [r6, #-1024]!	; 0xfffffc00
 5a0:	00008310 	andeq	r8, r0, r0, lsl r3
 5a4:	910aa000 	mrsls	sl, (UNDEF: 10)
 5a8:	04000004 	streq	r0, [r0], #-4
 5ac:	770f0527 	strvc	r0, [pc, -r7, lsr #10]
 5b0:	a4000000 	strge	r0, [r0], #-0
 5b4:	00010f0a 	andeq	r0, r1, sl, lsl #30
 5b8:	05280400 	streq	r0, [r8, #-1024]!	; 0xfffffc00
 5bc:	00008310 	andeq	r8, r0, r0, lsl r3
 5c0:	e70aa800 	str	sl, [sl, -r0, lsl #16]
 5c4:	04000000 	streq	r0, [r0], #-0
 5c8:	c70f0529 	strgt	r0, [pc, -r9, lsr #10]
 5cc:	ac000000 	stcge	0, cr0, [r0], {-0}
 5d0:	5253520b 	subspl	r5, r3, #-1342177280	; 0xb0000000
 5d4:	052a0400 	streq	r0, [sl, #-1024]!	; 0xfffffc00
 5d8:	00008310 	andeq	r8, r0, r0, lsl r3
 5dc:	440ad000 	strmi	sp, [sl], #-0
 5e0:	04000003 	streq	r0, [r0], #-3
 5e4:	8310052b 	tsthi	r0, #180355072	; 0xac00000
 5e8:	d4000000 	strle	r0, [r0], #-0
 5ec:	0004b30a 	andeq	fp, r4, sl, lsl #6
 5f0:	052c0400 	streq	r0, [ip, #-1024]!	; 0xfffffc00
 5f4:	00008310 	andeq	r8, r0, r0, lsl r3
 5f8:	f40ad800 	vst2.8	{d13-d14}, [sl], r0
 5fc:	04000003 	streq	r0, [r0], #-3
 600:	8310052d 	tsthi	r0, #188743680	; 0xb400000
 604:	dc000000 	stcle	0, cr0, [r0], {-0}
 608:	0002b50a 	andeq	fp, r2, sl, lsl #10
 60c:	052e0400 	streq	r0, [lr, #-1024]!	; 0xfffffc00
 610:	00008310 	andeq	r8, r0, r0, lsl r3
 614:	990ae000 	stmdbls	sl, {sp, lr, pc}
 618:	04000000 	streq	r0, [r0], #-0
 61c:	8310052f 	tsthi	r0, #197132288	; 0xbc00000
 620:	e4000000 	str	r0, [r0], #-0
 624:	0001790a 	andeq	r7, r1, sl, lsl #18
 628:	05300400 	ldreq	r0, [r0, #-1024]!	; 0xfffffc00
 62c:	00008310 	andeq	r8, r0, r0, lsl r3
 630:	530ae800 	movwpl	lr, #43008	; 0xa800
 634:	04000003 	streq	r0, [r0], #-3
 638:	83100531 	tsthi	r0, #205520896	; 0xc400000
 63c:	ec000000 	stc	0, cr0, [r0], {-0}
 640:	00012d0a 	andeq	r2, r1, sl, lsl #26
 644:	05320400 	ldreq	r0, [r2, #-1024]!	; 0xfffffc00
 648:	00008310 	andeq	r8, r0, r0, lsl r3
 64c:	9d0af000 	stcls	0, cr15, [sl, #-0]
 650:	04000005 	streq	r0, [r0], #-5
 654:	83100533 	tsthi	r0, #213909504	; 0xcc00000
 658:	f4000000 	vst4.8	{d0-d3}, [r0], r0
 65c:	0000f20a 	andeq	pc, r0, sl, lsl #4
 660:	05340400 	ldreq	r0, [r4, #-1024]!	; 0xfffffc00
 664:	00007710 	andeq	r7, r0, r0, lsl r7
 668:	850af800 	strhi	pc, [sl, #-2048]	; 0xfffff800
 66c:	04000005 	streq	r0, [r0], #-5
 670:	83100535 	tsthi	r0, #222298112	; 0xd400000
 674:	fc000000 	stc2	0, cr0, [r0], {-0}
 678:	00030f0e 	andeq	r0, r3, lr, lsl #30
 67c:	05360400 	ldreq	r0, [r6, #-1024]!	; 0xfffffc00
 680:	00008310 	andeq	r8, r0, r0, lsl r3
 684:	0e010000 	cdpeq	0, 0, cr0, cr1, cr0, {0}
 688:	0000053e 	andeq	r0, r0, lr, lsr r5
 68c:	10053704 	andne	r3, r5, r4, lsl #14
 690:	00000083 	andeq	r0, r0, r3, lsl #1
 694:	590e0104 	stmdbpl	lr, {r2, r8}
 698:	04000000 	streq	r0, [r0], #-0
 69c:	83100538 	tsthi	r0, #56, 10	; 0xe000000
 6a0:	08000000 	stmdaeq	r0, {}	; <UNPREDICTABLE>
 6a4:	054f0e01 	strbeq	r0, [pc, #-3585]	; fffff8ab <_estack+0xdbf7f8ab>
 6a8:	39040000 	stmdbcc	r4, {}	; <UNPREDICTABLE>
 6ac:	00831005 	addeq	r1, r3, r5
 6b0:	010c0000 	mrseq	r0, (UNDEF: 12)
 6b4:	00047c0e 	andeq	r7, r4, lr, lsl #24
 6b8:	053a0400 	ldreq	r0, [sl, #-1024]!	; 0xfffffc00
 6bc:	00008310 	andeq	r8, r0, r0, lsl r3
 6c0:	0e011000 	cdpeq	0, 0, cr1, cr1, cr0, {0}
 6c4:	000002a3 	andeq	r0, r0, r3, lsr #5
 6c8:	10053b04 	andne	r3, r5, r4, lsl #22
 6cc:	00000083 	andeq	r0, r0, r3, lsl #1
 6d0:	a20e0114 	andge	r0, lr, #20, 2
 6d4:	04000004 	streq	r0, [r0], #-4
 6d8:	8310053c 	tsthi	r0, #60, 10	; 0xf000000
 6dc:	18000000 	stmdane	r0, {}	; <UNPREDICTABLE>
 6e0:	027f0e01 	rsbseq	r0, pc, #1, 28
 6e4:	3d040000 	stccc	0, cr0, [r4, #-0]
 6e8:	00831005 	addeq	r1, r3, r5
 6ec:	011c0000 	tsteq	ip, r0
 6f0:	0000fd0e 	andeq	pc, r0, lr, lsl #26
 6f4:	053e0400 	ldreq	r0, [lr, #-1024]!	; 0xfffffc00
 6f8:	00008d0f 	andeq	r8, r0, pc, lsl #26
 6fc:	00012000 	andeq	r2, r1, r0
 700:	0001c50c 	andeq	ip, r1, ip, lsl #10
 704:	05400400 	strbeq	r0, [r0, #-1024]	; 0xfffffc00
 708:	00035e03 	andeq	r5, r3, r3, lsl #28
 70c:	03c01000 	biceq	r1, r0, #0
 710:	75010000 	strvc	r0, [r1, #-0]
 714:	00060806 	andeq	r0, r6, r6, lsl #16
 718:	00000c08 	andeq	r0, r0, r8, lsl #24
 71c:	119c0100 	orrsne	r0, ip, r0, lsl #2
 720:	000000d7 	ldrdeq	r0, [r0], -r7
 724:	f0067001 			; <UNDEFINED> instruction: 0xf0067001
 728:	18080005 	stmdane	r8, {r0, r2}
 72c:	01000000 	mrseq	r0, (UNDEF: 0)
 730:	0007439c 	muleq	r7, ip, r3
 734:	00611200 	rsbeq	r1, r1, r0, lsl #4
 738:	69097201 	stmdbvs	r9, {r0, r9, ip, sp, lr}
 73c:	02000000 	andeq	r0, r0, #0
 740:	13007491 	movwne	r7, #1169	; 0x491
 744:	000003e2 	andeq	r0, r0, r2, ror #7
 748:	bc061701 	stclt	7, cr1, [r6], {1}
 74c:	34080004 	strcc	r0, [r8], #-4
 750:	01000001 	tsteq	r0, r1
 754:	000abc9c 	muleq	sl, ip, ip
 758:	04371400 	ldrteq	r1, [r7], #-1024	; 0xfffffc00
 75c:	1a010000 	bne	40764 <_Min_Stack_Size+0x40364>
 760:	00008814 	andeq	r8, r0, r4, lsl r8
 764:	74910200 	ldrvc	r0, [r1], #512	; 0x200
 768:	00013514 	andeq	r3, r1, r4, lsl r5
 76c:	141b0100 	ldrne	r0, [fp], #-256	; 0xffffff00
 770:	00000088 	andeq	r0, r0, r8, lsl #1
 774:	14709102 	ldrbtne	r9, [r0], #-258	; 0xfffffefe
 778:	0000036c 	andeq	r0, r0, ip, ror #6
 77c:	88141c01 	ldmdahi	r4, {r0, sl, fp, ip}
 780:	02000000 	andeq	r0, r0, #0
 784:	a1146c91 			; <UNDEFINED> instruction: 0xa1146c91
 788:	01000000 	mrseq	r0, (UNDEF: 0)
 78c:	0088141d 	addeq	r1, r8, sp, lsl r4
 790:	91020000 	mrsls	r0, (UNDEF: 2)
 794:	00801468 	addeq	r1, r0, r8, ror #8
 798:	1e010000 	cdpne	0, 0, cr0, cr1, cr0, {0}
 79c:	00008814 	andeq	r8, r0, r4, lsl r8
 7a0:	64910200 	ldrvs	r0, [r1], #512	; 0x200
 7a4:	00045214 	andeq	r5, r4, r4, lsl r2
 7a8:	141f0100 	ldrne	r0, [pc], #-256	; 7b0 <_Min_Stack_Size+0x3b0>
 7ac:	00000088 	andeq	r0, r0, r8, lsl #1
 7b0:	14609102 	strbtne	r9, [r0], #-258	; 0xfffffefe
 7b4:	00000021 	andeq	r0, r0, r1, lsr #32
 7b8:	88142001 	ldmdahi	r4, {r0, sp}
 7bc:	02000000 	andeq	r0, r0, #0
 7c0:	29145c91 	ldmdbcs	r4, {r0, r4, r7, sl, fp, ip, lr}
 7c4:	01000004 	tsteq	r0, r4
 7c8:	00881421 	addeq	r1, r8, r1, lsr #8
 7cc:	91020000 	mrsls	r0, (UNDEF: 2)
 7d0:	04411458 	strbeq	r1, [r1], #-1112	; 0xfffffba8
 7d4:	22010000 	andcs	r0, r1, #0
 7d8:	00008814 	andeq	r8, r0, r4, lsl r8
 7dc:	54910200 	ldrpl	r0, [r1], #512	; 0x200
 7e0:	0004db14 	andeq	sp, r4, r4, lsl fp
 7e4:	14230100 	strtne	r0, [r3], #-256	; 0xffffff00
 7e8:	00000088 	andeq	r0, r0, r8, lsl #1
 7ec:	14509102 	ldrbne	r9, [r0], #-258	; 0xfffffefe
 7f0:	0000039c 	muleq	r0, ip, r3
 7f4:	88142401 	ldmdahi	r4, {r0, sl, sp}
 7f8:	02000000 	andeq	r0, r0, #0
 7fc:	52144c91 	andspl	r4, r4, #37120	; 0x9100
 800:	01000001 	tsteq	r0, r1
 804:	00881425 	addeq	r1, r8, r5, lsr #8
 808:	91020000 	mrsls	r0, (UNDEF: 2)
 80c:	05591448 	ldrbeq	r1, [r9, #-1096]	; 0xfffffbb8
 810:	26010000 	strcs	r0, [r1], -r0
 814:	00008814 	andeq	r8, r0, r4, lsl r8
 818:	44910200 	ldrmi	r0, [r1], #512	; 0x200
 81c:	00011514 	andeq	r1, r1, r4, lsl r5
 820:	14270100 	strtne	r0, [r7], #-256	; 0xffffff00
 824:	00000088 	andeq	r0, r0, r8, lsl #1
 828:	14409102 	strbne	r9, [r0], #-258	; 0xfffffefe
 82c:	000003d1 	ldrdeq	r0, [r0], -r1
 830:	88142801 	ldmdahi	r4, {r0, fp, sp}
 834:	03000000 	movweq	r0, #0
 838:	147fbc91 	ldrbtne	fp, [pc], #-3217	; 840 <_Min_Stack_Size+0x440>
 83c:	000000b0 	strheq	r0, [r0], -r0	; <UNPREDICTABLE>
 840:	88142901 	ldmdahi	r4, {r0, r8, fp, sp}
 844:	03000000 	movweq	r0, #0
 848:	147fb891 	ldrbtne	fp, [pc], #-2193	; 850 <_Min_Stack_Size+0x450>
 84c:	000004ea 	andeq	r0, r0, sl, ror #9
 850:	88142a01 	ldmdahi	r4, {r0, r9, fp, sp}
 854:	03000000 	movweq	r0, #0
 858:	147fb491 	ldrbtne	fp, [pc], #-1169	; 860 <_Min_Stack_Size+0x460>
 85c:	0000035c 	andeq	r0, r0, ip, asr r3
 860:	88142b01 	ldmdahi	r4, {r0, r8, r9, fp, sp}
 864:	03000000 	movweq	r0, #0
 868:	147fb091 	ldrbtne	fp, [pc], #-145	; 870 <_Min_Stack_Size+0x470>
 86c:	00000460 	andeq	r0, r0, r0, ror #8
 870:	88142c01 	ldmdahi	r4, {r0, sl, fp, sp}
 874:	03000000 	movweq	r0, #0
 878:	147fac91 	ldrbtne	sl, [pc], #-3217	; 880 <_Min_Stack_Size+0x480>
 87c:	000004f9 	strdeq	r0, [r0], -r9
 880:	88142d01 	ldmdahi	r4, {r0, r8, sl, fp, sp}
 884:	03000000 	movweq	r0, #0
 888:	147fa891 	ldrbtne	sl, [pc], #-2193	; 890 <_Min_Stack_Size+0x490>
 88c:	00000195 	muleq	r0, r5, r1
 890:	88142e01 	ldmdahi	r4, {r0, r9, sl, fp, sp}
 894:	03000000 	movweq	r0, #0
 898:	147fa491 	ldrbtne	sl, [pc], #-1169	; 8a0 <_Min_Stack_Size+0x4a0>
 89c:	000002bd 			; <UNDEFINED> instruction: 0x000002bd
 8a0:	88142f01 	ldmdahi	r4, {r0, r8, r9, sl, fp, sp}
 8a4:	03000000 	movweq	r0, #0
 8a8:	147fa091 	ldrbtne	sl, [pc], #-145	; 8b0 <_Min_Stack_Size+0x4b0>
 8ac:	00000015 	andeq	r0, r0, r5, lsl r0
 8b0:	88143001 	ldmdahi	r4, {r0, ip, sp}
 8b4:	03000000 	movweq	r0, #0
 8b8:	147f9c91 	ldrbtne	r9, [pc], #-3217	; 8c0 <_Min_Stack_Size+0x4c0>
 8bc:	0000002f 	andeq	r0, r0, pc, lsr #32
 8c0:	88143101 	ldmdahi	r4, {r0, r8, ip, sp}
 8c4:	03000000 	movweq	r0, #0
 8c8:	147f9891 	ldrbtne	r9, [pc], #-2193	; 8d0 <_Min_Stack_Size+0x4d0>
 8cc:	0000056e 	andeq	r0, r0, lr, ror #10
 8d0:	88143201 	ldmdahi	r4, {r0, r9, ip, sp}
 8d4:	03000000 	movweq	r0, #0
 8d8:	147f9491 	ldrbtne	r9, [pc], #-1169	; 8e0 <_Min_Stack_Size+0x4e0>
 8dc:	000004bb 			; <UNDEFINED> instruction: 0x000004bb
 8e0:	88143301 	ldmdahi	r4, {r0, r8, r9, ip, sp}
 8e4:	03000000 	movweq	r0, #0
 8e8:	147f9091 	ldrbtne	r9, [pc], #-145	; 8f0 <_Min_Stack_Size+0x4f0>
 8ec:	00000268 	andeq	r0, r0, r8, ror #4
 8f0:	88143401 	ldmdahi	r4, {r0, sl, ip, sp}
 8f4:	03000000 	movweq	r0, #0
 8f8:	147f8c91 	ldrbtne	r8, [pc], #-3217	; 900 <_Min_Stack_Size+0x500>
 8fc:	00000000 	andeq	r0, r0, r0
 900:	88143501 	ldmdahi	r4, {r0, r8, sl, ip, sp}
 904:	03000000 	movweq	r0, #0
 908:	147f8891 	ldrbtne	r8, [pc], #-2193	; 910 <_Min_Stack_Size+0x510>
 90c:	000003fc 	strdeq	r0, [r0], -ip
 910:	88143601 	ldmdahi	r4, {r0, r9, sl, ip, sp}
 914:	03000000 	movweq	r0, #0
 918:	147f8491 	ldrbtne	r8, [pc], #-1169	; 920 <_Min_Stack_Size+0x520>
 91c:	00000042 	andeq	r0, r0, r2, asr #32
 920:	88143701 	ldmdahi	r4, {r0, r8, r9, sl, ip, sp}
 924:	03000000 	movweq	r0, #0
 928:	147f8091 	ldrbtne	r8, [pc], #-145	; 930 <_Min_Stack_Size+0x530>
 92c:	000001b4 			; <UNDEFINED> instruction: 0x000001b4
 930:	88143801 	ldmdahi	r4, {r0, fp, ip, sp}
 934:	03000000 	movweq	r0, #0
 938:	147efc91 	ldrbtne	pc, [lr], #-3217	; 0xfffff36f	; <UNPREDICTABLE>
 93c:	00000526 	andeq	r0, r0, r6, lsr #10
 940:	88143901 	ldmdahi	r4, {r0, r8, fp, ip, sp}
 944:	03000000 	movweq	r0, #0
 948:	147ef891 	ldrbtne	pc, [lr], #-2193	; 0xfffff76f	; <UNPREDICTABLE>
 94c:	0000032d 	andeq	r0, r0, sp, lsr #6
 950:	88143a01 	ldmdahi	r4, {r0, r9, fp, ip, sp}
 954:	03000000 	movweq	r0, #0
 958:	147ef491 	ldrbtne	pc, [lr], #-1169	; 0xfffffb6f	; <UNPREDICTABLE>
 95c:	000004cb 	andeq	r0, r0, fp, asr #9
 960:	88143b01 	ldmdahi	r4, {r0, r8, r9, fp, ip, sp}
 964:	03000000 	movweq	r0, #0
 968:	147ef091 	ldrbtne	pc, [lr], #-145	; 0xffffff6f	; <UNPREDICTABLE>
 96c:	000000c1 	andeq	r0, r0, r1, asr #1
 970:	88143c01 	ldmdahi	r4, {r0, sl, fp, ip, sp}
 974:	03000000 	movweq	r0, #0
 978:	147eec91 	ldrbtne	lr, [lr], #-3217	; 0xfffff36f
 97c:	00000108 	andeq	r0, r0, r8, lsl #2
 980:	88143d01 	ldmdahi	r4, {r0, r8, sl, fp, ip, sp}
 984:	03000000 	movweq	r0, #0
 988:	147ee891 	ldrbtne	lr, [lr], #-2193	; 0xfffff76f
 98c:	00000162 	andeq	r0, r0, r2, ror #2
 990:	88143e01 	ldmdahi	r4, {r0, r9, sl, fp, ip, sp}
 994:	03000000 	movweq	r0, #0
 998:	147ee491 	ldrbtne	lr, [lr], #-1169	; 0xfffffb6f
 99c:	000004ac 	andeq	r0, r0, ip, lsr #9
 9a0:	88143f01 	ldmdahi	r4, {r0, r8, r9, sl, fp, ip, sp}
 9a4:	03000000 	movweq	r0, #0
 9a8:	147ee091 	ldrbtne	lr, [lr], #-145	; 0xffffff6f
 9ac:	000003ed 	andeq	r0, r0, sp, ror #7
 9b0:	88144001 	ldmdahi	r4, {r0, lr}
 9b4:	03000000 	movweq	r0, #0
 9b8:	147edc91 	ldrbtne	sp, [lr], #-3217	; 0xfffff36f
 9bc:	0000033d 	andeq	r0, r0, sp, lsr r3
 9c0:	88144101 	ldmdahi	r4, {r0, r8, lr}
 9c4:	03000000 	movweq	r0, #0
 9c8:	147ed891 	ldrbtne	sp, [lr], #-2193	; 0xfffff76f
 9cc:	000002ae 	andeq	r0, r0, lr, lsr #5
 9d0:	88144201 	ldmdahi	r4, {r0, r9, lr}
 9d4:	03000000 	movweq	r0, #0
 9d8:	147ed491 	ldrbtne	sp, [lr], #-1169	; 0xfffffb6f
 9dc:	0000034c 	andeq	r0, r0, ip, asr #6
 9e0:	88144301 	ldmdahi	r4, {r0, r8, r9, lr}
 9e4:	03000000 	movweq	r0, #0
 9e8:	147ed091 	ldrbtne	sp, [lr], #-145	; 0xffffff6f
 9ec:	00000172 	andeq	r0, r0, r2, ror r1
 9f0:	88144401 	ldmdahi	r4, {r0, sl, lr}
 9f4:	03000000 	movweq	r0, #0
 9f8:	147ecc91 	ldrbtne	ip, [lr], #-3217	; 0xfffff36f
 9fc:	00000126 	andeq	r0, r0, r6, lsr #2
 a00:	88144501 	ldmdahi	r4, {r0, r8, sl, lr}
 a04:	03000000 	movweq	r0, #0
 a08:	147ec891 	ldrbtne	ip, [lr], #-2193	; 0xfffff76f
 a0c:	00000092 	muleq	r0, r2, r0
 a10:	88144601 	ldmdahi	r4, {r0, r9, sl, lr}
 a14:	03000000 	movweq	r0, #0
 a18:	147ec491 	ldrbtne	ip, [lr], #-1169	; 0xfffffb6f
 a1c:	00000596 	muleq	r0, r6, r5
 a20:	88144701 	ldmdahi	r4, {r0, r8, r9, sl, lr}
 a24:	03000000 	movweq	r0, #0
 a28:	147ec091 	ldrbtne	ip, [lr], #-145	; 0xffffff6f
 a2c:	00000308 	andeq	r0, r0, r8, lsl #6
 a30:	88144901 	ldmdahi	r4, {r0, r8, fp, lr}
 a34:	03000000 	movweq	r0, #0
 a38:	147ebc91 	ldrbtne	fp, [lr], #-3217	; 0xfffff36f
 a3c:	00000537 	andeq	r0, r0, r7, lsr r5
 a40:	88144a01 	ldmdahi	r4, {r0, r9, fp, lr}
 a44:	03000000 	movweq	r0, #0
 a48:	147eb891 	ldrbtne	fp, [lr], #-2193	; 0xfffff76f
 a4c:	0000057e 	andeq	r0, r0, lr, ror r5
 a50:	88144b01 	ldmdahi	r4, {r0, r8, r9, fp, lr}
 a54:	03000000 	movweq	r0, #0
 a58:	147eb491 	ldrbtne	fp, [lr], #-1169	; 0xfffffb6f
 a5c:	00000052 	andeq	r0, r0, r2, asr r0
 a60:	88144c01 	ldmdahi	r4, {r0, sl, fp, lr}
 a64:	03000000 	movweq	r0, #0
 a68:	147eb091 	ldrbtne	fp, [lr], #-145	; 0xffffff6f
 a6c:	00000475 	andeq	r0, r0, r5, ror r4
 a70:	88144e01 	ldmdahi	r4, {r0, r9, sl, fp, lr}
 a74:	03000000 	movweq	r0, #0
 a78:	147eac91 	ldrbtne	sl, [lr], #-3217	; 0xfffff36f
 a7c:	0000029c 	muleq	r0, ip, r2
 a80:	88144f01 	ldmdahi	r4, {r0, r8, r9, sl, fp, lr}
 a84:	03000000 	movweq	r0, #0
 a88:	147ea891 	ldrbtne	sl, [lr], #-2193	; 0xfffff76f
 a8c:	0000049b 	muleq	r0, fp, r4
 a90:	88145001 	ldmdahi	r4, {r0, ip, lr}
 a94:	03000000 	movweq	r0, #0
 a98:	147ea491 	ldrbtne	sl, [lr], #-1169	; 0xfffffb6f
 a9c:	00000548 	andeq	r0, r0, r8, asr #10
 aa0:	88145101 	ldmdahi	r4, {r0, r8, ip, lr}
 aa4:	03000000 	movweq	r0, #0
 aa8:	147ea091 	ldrbtne	sl, [lr], #-145	; 0xffffff6f
 aac:	00000278 	andeq	r0, r0, r8, ror r2
 ab0:	88145201 	ldmdahi	r4, {r0, r9, ip, lr}
 ab4:	03000000 	movweq	r0, #0
 ab8:	007e9c91 			; <UNDEFINED> instruction: 0x007e9c91
 abc:	00057915 	andeq	r7, r5, r5, lsl r9
 ac0:	06090100 	streq	r0, [r9], -r0, lsl #2
 ac4:	08000440 	stmdaeq	r0, {r6, sl}
 ac8:	0000007c 	andeq	r0, r0, ip, ror r0
 acc:	61129c01 	tstvs	r2, r1, lsl #24
 ad0:	090b0100 	stmdbeq	fp, {r8}
 ad4:	00000069 	andeq	r0, r0, r9, rrx
 ad8:	166c9102 	strbtne	r9, [ip], -r2, lsl #2
 adc:	08000472 	stmdaeq	r0, {r1, r4, r5, r6, sl}
 ae0:	00000014 	andeq	r0, r0, r4, lsl r0
 ae4:	00000af6 	strdeq	r0, [r0], -r6
 ae8:	01006912 	tsteq	r0, r2, lsl r9
 aec:	00691111 	rsbeq	r1, r9, r1, lsl r1
 af0:	91020000 	mrsls	r0, (UNDEF: 2)
 af4:	92170074 	andsls	r0, r7, #116	; 0x74
 af8:	14080004 	strne	r0, [r8], #-4
 afc:	12000000 	andne	r0, r0, #0
 b00:	13010069 	movwne	r0, #4201	; 0x1069
 b04:	00006911 	andeq	r6, r0, r1, lsl r9
 b08:	70910200 	addsvc	r0, r1, r0, lsl #4
 b0c:	1e000000 	cdpne	0, 0, cr0, cr0, cr0, {0}
 b10:	02000000 	andeq	r0, r0, #0
 b14:	00016600 	andeq	r6, r1, r0, lsl #12
 b18:	b7010400 	strlt	r0, [r1, -r0, lsl #8]
 b1c:	00000001 	andeq	r0, r0, r1
 b20:	a5000000 	strge	r0, [r0, #-0]
 b24:	33000005 	movwcc	r0, #5
 b28:	e7000002 	str	r0, [r0, -r2]
 b2c:	01000005 	tsteq	r0, r5
 b30:	Address 0x00000b30 is out of bounds.


Disassembly of section .debug_abbrev:

00000000 <.debug_abbrev>:
   0:	25011101 	strcs	r1, [r1, #-257]	; 0xfffffeff
   4:	030b130e 	movweq	r1, #45838	; 0xb30e
   8:	110e1b0e 	tstne	lr, lr, lsl #22
   c:	10061201 	andne	r1, r6, r1, lsl #4
  10:	02000017 	andeq	r0, r0, #23
  14:	0b0b0024 	bleq	2c00ac <_Min_Stack_Size+0x2bfcac>
  18:	0e030b3e 	vmoveq.16	d3[0], r0
  1c:	16030000 	strne	r0, [r3], -r0
  20:	3a0e0300 	bcc	380c28 <_Min_Stack_Size+0x380828>
  24:	390b3b0b 	stmdbcc	fp, {r0, r1, r3, r8, r9, fp, ip, sp}
  28:	0013490b 	andseq	r4, r3, fp, lsl #18
  2c:	00240400 	eoreq	r0, r4, r0, lsl #8
  30:	0b3e0b0b 	bleq	f82c64 <_Min_Stack_Size+0xf82864>
  34:	00000803 	andeq	r0, r0, r3, lsl #16
  38:	49003505 	stmdbmi	r0, {r0, r2, r8, sl, ip, sp}
  3c:	06000013 			; <UNDEFINED> instruction: 0x06000013
  40:	13490026 	movtne	r0, #36902	; 0x9026
  44:	01070000 	mrseq	r0, (UNDEF: 7)
  48:	01134901 	tsteq	r3, r1, lsl #18
  4c:	08000013 	stmdaeq	r0, {r0, r1, r4}
  50:	13490021 	movtne	r0, #36897	; 0x9021
  54:	00000b2f 	andeq	r0, r0, pc, lsr #22
  58:	0b011309 	bleq	44c84 <_Min_Stack_Size+0x44884>
  5c:	3b0b3a0b 	blcc	2ce890 <_Min_Stack_Size+0x2ce490>
  60:	010b3905 	tsteq	fp, r5, lsl #18
  64:	0a000013 	beq	b8 <_Min_Heap_Size-0x148>
  68:	0e03000d 	cdpeq	0, 0, cr0, cr3, cr13, {0}
  6c:	053b0b3a 	ldreq	r0, [fp, #-2874]!	; 0xfffff4c6
  70:	13490b39 	movtne	r0, #39737	; 0x9b39
  74:	00000b38 	andeq	r0, r0, r8, lsr fp
  78:	03000d0b 	movweq	r0, #3339	; 0xd0b
  7c:	3b0b3a08 	blcc	2ce8a4 <_Min_Stack_Size+0x2ce4a4>
  80:	490b3905 	stmdbmi	fp, {r0, r2, r8, fp, ip, sp}
  84:	000b3813 	andeq	r3, fp, r3, lsl r8
  88:	00160c00 	andseq	r0, r6, r0, lsl #24
  8c:	0b3a0e03 	bleq	e838a0 <_Min_Stack_Size+0xe834a0>
  90:	0b39053b 	bleq	e41584 <_Min_Stack_Size+0xe41184>
  94:	00001349 	andeq	r1, r0, r9, asr #6
  98:	0b01130d 	bleq	44cd4 <_Min_Stack_Size+0x448d4>
  9c:	3b0b3a05 	blcc	2ce8b8 <_Min_Stack_Size+0x2ce4b8>
  a0:	010b3905 	tsteq	fp, r5, lsl #18
  a4:	0e000013 	mcreq	0, 0, r0, cr0, cr3, {0}
  a8:	0e03000d 	cdpeq	0, 0, cr0, cr3, cr13, {0}
  ac:	053b0b3a 	ldreq	r0, [fp, #-2874]!	; 0xfffff4c6
  b0:	13490b39 	movtne	r0, #39737	; 0x9b39
  b4:	00000538 	andeq	r0, r0, r8, lsr r5
  b8:	03000d0f 	movweq	r0, #3343	; 0xd0f
  bc:	3b0b3a08 	blcc	2ce8e4 <_Min_Stack_Size+0x2ce4e4>
  c0:	490b3905 	stmdbmi	fp, {r0, r2, r8, fp, ip, sp}
  c4:	00053813 	andeq	r3, r5, r3, lsl r8
  c8:	002e1000 	eoreq	r1, lr, r0
  cc:	0e03193f 			; <UNDEFINED> instruction: 0x0e03193f
  d0:	0b3b0b3a 	bleq	ec2dc0 <_Min_Stack_Size+0xec29c0>
  d4:	01110b39 	tsteq	r1, r9, lsr fp
  d8:	18400612 	stmdane	r0, {r1, r4, r9, sl}^
  dc:	00194297 	mulseq	r9, r7, r2
  e0:	012e1100 			; <UNDEFINED> instruction: 0x012e1100
  e4:	0e03193f 			; <UNDEFINED> instruction: 0x0e03193f
  e8:	0b3b0b3a 	bleq	ec2dd8 <_Min_Stack_Size+0xec29d8>
  ec:	01110b39 	tsteq	r1, r9, lsr fp
  f0:	18400612 	stmdane	r0, {r1, r4, r9, sl}^
  f4:	01194297 			; <UNDEFINED> instruction: 0x01194297
  f8:	12000013 	andne	r0, r0, #19
  fc:	08030034 	stmdaeq	r3, {r2, r4, r5}
 100:	0b3b0b3a 	bleq	ec2df0 <_Min_Stack_Size+0xec29f0>
 104:	13490b39 	movtne	r0, #39737	; 0x9b39
 108:	00001802 	andeq	r1, r0, r2, lsl #16
 10c:	3f012e13 	svccc	0x00012e13
 110:	3a0e0319 	bcc	380d7c <_Min_Stack_Size+0x38097c>
 114:	390b3b0b 	stmdbcc	fp, {r0, r1, r3, r8, r9, fp, ip, sp}
 118:	1119270b 	tstne	r9, fp, lsl #14
 11c:	40061201 	andmi	r1, r6, r1, lsl #4
 120:	19429618 	stmdbne	r2, {r3, r4, r9, sl, ip, pc}^
 124:	00001301 	andeq	r1, r0, r1, lsl #6
 128:	03003414 	movweq	r3, #1044	; 0x414
 12c:	3b0b3a0e 	blcc	2ce96c <_Min_Stack_Size+0x2ce56c>
 130:	490b390b 	stmdbmi	fp, {r0, r1, r3, r8, fp, ip, sp}
 134:	00180213 	andseq	r0, r8, r3, lsl r2
 138:	012e1500 			; <UNDEFINED> instruction: 0x012e1500
 13c:	0e03193f 			; <UNDEFINED> instruction: 0x0e03193f
 140:	0b3b0b3a 	bleq	ec2e30 <_Min_Stack_Size+0xec2a30>
 144:	01110b39 	tsteq	r1, r9, lsr fp
 148:	18400612 	stmdane	r0, {r1, r4, r9, sl}^
 14c:	00194297 	mulseq	r9, r7, r2
 150:	010b1600 	tsteq	fp, r0, lsl #12
 154:	06120111 			; <UNDEFINED> instruction: 0x06120111
 158:	00001301 	andeq	r1, r0, r1, lsl #6
 15c:	11010b17 	tstne	r1, r7, lsl fp
 160:	00061201 	andeq	r1, r6, r1, lsl #4
 164:	11010000 	mrsne	r0, (UNDEF: 1)
 168:	55061000 	strpl	r1, [r6, #-0]
 16c:	1b0e0306 	blne	380d8c <_Min_Stack_Size+0x38098c>
 170:	130e250e 	movwne	r2, #58638	; 0xe50e
 174:	00000005 	andeq	r0, r0, r5

Disassembly of section .debug_aranges:

00000000 <.debug_aranges>:
   0:	0000001c 	andeq	r0, r0, ip, lsl r0
   4:	00000002 	andeq	r0, r0, r2
   8:	00040000 	andeq	r0, r4, r0
   c:	00000000 	andeq	r0, r0, r0
  10:	08000440 	stmdaeq	r0, {r6, sl}
  14:	000001d4 	ldrdeq	r0, [r0], -r4
	...
  20:	00000024 	andeq	r0, r0, r4, lsr #32
  24:	0b0f0002 	bleq	3c0034 <_Min_Stack_Size+0x3bfc34>
  28:	00040000 	andeq	r0, r4, r0
  2c:	00000000 	andeq	r0, r0, r0
  30:	08000ab0 	stmdaeq	r0, {r4, r5, r7, r9, fp}
  34:	00000050 	andeq	r0, r0, r0, asr r0
  38:	08000b00 	stmdaeq	r0, {r8, r9, fp}
  3c:	00000002 	andeq	r0, r0, r2
	...

Disassembly of section .debug_line:

00000000 <.debug_line>:
   0:	000001b3 			; <UNDEFINED> instruction: 0x000001b3
   4:	01140003 	tsteq	r4, r3
   8:	01020000 	mrseq	r0, (UNDEF: 2)
   c:	000d0efb 	strdeq	r0, [sp], -fp
  10:	01010101 	tsteq	r1, r1, lsl #2
  14:	01000000 	mrseq	r0, (UNDEF: 0)
  18:	43010000 	movwmi	r0, #4096	; 0x1000
  1c:	4f572f3a 	svcmi	0x00572f3a
  20:	522f4b52 	eorpl	r4, pc, #83968	; 0x14800
  24:	49424f45 	stmdbmi	r2, {r0, r2, r6, r8, r9, sl, fp, lr}^
  28:	55505f54 	ldrbpl	r5, [r0, #-3924]	; 0xfffff0ac
  2c:	6d652f42 	stclvs	15, cr2, [r5, #-264]!	; 0xfffffef8
  30:	72702f62 	rsbsvc	r2, r0, #392	; 0x188
  34:	63656a6f 	cmnvs	r5, #454656	; 0x6f000
  38:	6e2f7374 	mcrvs	3, 1, r7, cr15, cr4, {3}
  3c:	656c6375 	strbvs	r6, [ip, #-885]!	; 0xfffffc8b
  40:	37685f6f 	strbcc	r5, [r8, -pc, ror #30]!
  44:	485f3534 	ldmdami	pc, {r2, r4, r5, r8, sl, ip, sp}^	; <UNPREDICTABLE>
  48:	75622f37 	strbvc	r2, [r2, #-3895]!	; 0xfffff0c9
  4c:	2f646c69 	svccs	0x00646c69
  50:	63002e2e 	movwvs	r2, #3630	; 0xe2e
  54:	72615c3a 	rsbvc	r5, r1, #14848	; 0x3a00
  58:	6f6e2d6d 	svcvs	0x006e2d6d
  5c:	652d656e 	strvs	r6, [sp, #-1390]!	; 0xfffffa92
  60:	5c696261 	sfmpl	f6, 2, [r9], #-388	; 0xfffffe7c
  64:	2d6d7261 	sfmcs	f7, 2, [sp, #-388]!	; 0xfffffe7c
  68:	656e6f6e 	strbvs	r6, [lr, #-3950]!	; 0xfffff092
  6c:	6261652d 	rsbvs	r6, r1, #188743680	; 0xb400000
  70:	6e695c69 	cdpvs	12, 6, cr5, cr9, cr9, {3}
  74:	64756c63 	ldrbtvs	r6, [r5], #-3171	; 0xfffff39d
  78:	616d5c65 	cmnvs	sp, r5, ror #24
  7c:	6e696863 	cdpvs	8, 6, cr6, cr9, cr3, {3}
  80:	3a630065 	bcc	18c021c <_Min_Stack_Size+0x18bfe1c>
  84:	6d72615c 	ldfvse	f6, [r2, #-368]!	; 0xfffffe90
  88:	6e6f6e2d 	cdpvs	14, 6, cr6, cr15, cr13, {1}
  8c:	61652d65 	cmnvs	r5, r5, ror #26
  90:	615c6962 	cmpvs	ip, r2, ror #18
  94:	6e2d6d72 	mcrvs	13, 1, r6, cr13, cr2, {3}
  98:	2d656e6f 	stclcs	14, cr6, [r5, #-444]!	; 0xfffffe44
  9c:	69626165 	stmdbvs	r2!, {r0, r2, r5, r6, r8, sp, lr}^
  a0:	636e695c 	cmnvs	lr, #92, 18	; 0x170000
  a4:	6564756c 	strbvs	r7, [r4, #-1388]!	; 0xfffffa94
  a8:	7379735c 	cmnvc	r9, #92, 6	; 0x70000001
  ac:	5c3a6300 	ldcpl	3, cr6, [sl], #-0
  b0:	6b726f77 	blvs	1c9be94 <_Min_Stack_Size+0x1c9ba94>
  b4:	6f65725c 	svcvs	0x0065725c
  b8:	5f746962 	svcpl	0x00746962
  bc:	5c627570 	cfstr64pl	mvdx7, [r2], #-448	; 0xfffffe40
  c0:	5c626d65 	stclpl	13, cr6, [r2], #-404	; 0xfffffe6c
  c4:	6a6f7270 	bvs	1bdca8c <_Min_Stack_Size+0x1bdc68c>
  c8:	73746365 	cmnvc	r4, #-1811939327	; 0x94000001
  cc:	63756e5c 	cmnvs	r5, #92, 28	; 0x5c0
  d0:	5f6f656c 	svcpl	0x006f656c
  d4:	35343768 	ldrcc	r3, [r4, #-1896]!	; 0xfffff898
  d8:	5c37685f 	ldcpl	8, cr6, [r7], #-380	; 0xfffffe84
  dc:	00636e69 	rsbeq	r6, r3, r9, ror #28
  e0:	69616d00 	stmdbvs	r1!, {r8, sl, fp, sp, lr}^
  e4:	00632e6e 	rsbeq	r2, r3, lr, ror #28
  e8:	5f000001 	svcpl	0x00000001
  ec:	61666564 	cmnvs	r6, r4, ror #10
  f0:	5f746c75 	svcpl	0x00746c75
  f4:	65707974 	ldrbvs	r7, [r0, #-2420]!	; 0xfffff68c
  f8:	00682e73 	rsbeq	r2, r8, r3, ror lr
  fc:	5f000002 	svcpl	0x00000002
 100:	69647473 	stmdbvs	r4!, {r0, r1, r4, r5, r6, sl, ip, sp, lr}^
 104:	682e746e 	stmdavs	lr!, {r1, r2, r3, r5, r6, sl, ip, sp, lr}
 108:	00000300 	andeq	r0, r0, r0, lsl #6
 10c:	336d7473 	cmncc	sp, #1929379840	; 0x73000000
 110:	34376832 	ldrtcc	r6, [r7], #-2098	; 0xfffff7ce
 114:	2e787835 	mrccs	8, 3, r7, cr8, cr5, {1}
 118:	00040068 	andeq	r0, r4, r8, rrx
 11c:	01050000 	mrseq	r0, (UNDEF: 5)
 120:	40020500 	andmi	r0, r2, r0, lsl #10
 124:	03080004 	movweq	r0, #32772	; 0x8004
 128:	09050109 	stmdbeq	r5, {r0, r3, r8}
 12c:	3012053d 	andscc	r0, r2, sp, lsr r5
 130:	68150583 	ldmdavs	r5, {r0, r1, r7, r8, sl}
 134:	05671105 	strbeq	r1, [r7, #-261]!	; 0xfffffefb
 138:	23052e09 	movwcs	r2, #24073	; 0x5e09
 13c:	03040200 	movweq	r0, #16896	; 0x4200
 140:	00090520 	andeq	r0, r9, r0, lsr #10
 144:	3c010402 	cfstrscc	mvf0, [r1], {2}
 148:	054b1505 	strbeq	r1, [fp, #-1285]	; 0xfffffafb
 14c:	09056711 	stmdbeq	r5, {r0, r4, r8, r9, sl, sp, lr}
 150:	0023052e 	eoreq	r0, r3, lr, lsr #10
 154:	20030402 	andcs	r0, r3, r2, lsl #8
 158:	02000905 	andeq	r0, r0, #81920	; 0x14000
 15c:	053c0104 	ldreq	r0, [ip, #-260]!	; 0xfffffefc
 160:	01054715 	tsteq	r5, r5, lsl r7
 164:	3e1405b4 	cfcmp64cc	r0, mvdx4, mvdx4
 168:	3d3d3d3d 	ldccc	13, cr3, [sp, #-244]!	; 0xffffff0c
 16c:	3d3d3d3d 	ldccc	13, cr3, [sp, #-244]!	; 0xffffff0c
 170:	3d3d3d3d 	ldccc	13, cr3, [sp, #-244]!	; 0xffffff0c
 174:	3d3d3d3d 	ldccc	13, cr3, [sp, #-244]!	; 0xffffff0c
 178:	3d3d3d3d 	ldccc	13, cr3, [sp, #-244]!	; 0xffffff0c
 17c:	3d3d3d3d 	ldccc	13, cr3, [sp, #-244]!	; 0xffffff0c
 180:	2f2f2f2f 	svccs	0x002f2f2f
 184:	2f2f2f2f 	svccs	0x002f2f2f
 188:	2f2f2f2f 	svccs	0x002f2f2f
 18c:	2f2f2f2f 	svccs	0x002f2f2f
 190:	2f2f2f2f 	svccs	0x002f2f2f
 194:	2f2f302f 	svccs	0x002f302f
 198:	2f2f302f 	svccs	0x002f302f
 19c:	11052f2f 	tstne	r5, pc, lsr #30
 1a0:	052e1a03 	streq	r1, [lr, #-2563]!	; 0xfffff5fd
 1a4:	01058305 	tsteq	r5, r5, lsl #6
 1a8:	0905772f 	stmdbeq	r5, {r0, r1, r2, r3, r5, r8, r9, sl, ip, sp, lr}
 1ac:	2f01053d 	svccs	0x0001053d
 1b0:	04023077 	streq	r3, [r2], #-119	; 0xffffff89
 1b4:	9e010100 	adflss	f0, f1, f0
 1b8:	03000000 	movweq	r0, #0
 1bc:	00005800 	andeq	r5, r0, r0, lsl #16
 1c0:	fb010200 	blx	409ca <_Min_Stack_Size+0x405ca>
 1c4:	01000d0e 	tsteq	r0, lr, lsl #26
 1c8:	00010101 	andeq	r0, r1, r1, lsl #2
 1cc:	00010000 	andeq	r0, r1, r0
 1d0:	3a430100 	bcc	10c05d8 <_Min_Stack_Size+0x10c01d8>
 1d4:	524f572f 	subpl	r5, pc, #12320768	; 0xbc0000
 1d8:	45522f4b 	ldrbmi	r2, [r2, #-3915]	; 0xfffff0b5
 1dc:	5449424f 	strbpl	r4, [r9], #-591	; 0xfffffdb1
 1e0:	4255505f 	subsmi	r5, r5, #95	; 0x5f
 1e4:	626d652f 	rsbvs	r6, sp, #197132288	; 0xbc00000
 1e8:	6f72702f 	svcvs	0x0072702f
 1ec:	7463656a 	strbtvc	r6, [r3], #-1386	; 0xfffffa96
 1f0:	756e2f73 	strbvc	r2, [lr, #-3955]!	; 0xfffff08d
 1f4:	6f656c63 	svcvs	0x00656c63
 1f8:	3437685f 	ldrtcc	r6, [r7], #-2143	; 0xfffff7a1
 1fc:	37485f35 	smlaldxcc	r5, r8, r5, pc	; <UNPREDICTABLE>
 200:	6975622f 	ldmdbvs	r5!, {r0, r1, r2, r3, r5, r9, sp, lr}^
 204:	2e2f646c 	cdpcs	4, 2, cr6, cr15, cr12, {3}
 208:	7300002e 	movwvc	r0, #46	; 0x2e
 20c:	74726174 	ldrbtvc	r6, [r2], #-372	; 0xfffffe8c
 210:	732e7075 			; <UNDEFINED> instruction: 0x732e7075
 214:	00000100 	andeq	r0, r0, r0, lsl #2
 218:	02050000 	andeq	r0, r5, #0
 21c:	08000ab0 	stmdaeq	r0, {r4, r5, r7, r9, fp}
 220:	31013c03 	tstcc	r1, r3, lsl #24
 224:	21212131 			; <UNDEFINED> instruction: 0x21212131
 228:	21212321 			; <UNDEFINED> instruction: 0x21212321
 22c:	22212123 	eorcs	r2, r1, #-1073741816	; 0xc0000008
 230:	23212121 			; <UNDEFINED> instruction: 0x23212121
 234:	23212321 			; <UNDEFINED> instruction: 0x23212321
 238:	59032f30 	stmdbpl	r3, {r4, r5, r8, r9, sl, fp, sp}
 23c:	2f2f3420 	svccs	0x002f3420
 240:	2f2e0e03 	svccs	0x002e0e03
 244:	01000202 	tsteq	r0, r2, lsl #4
 248:	02050001 	andeq	r0, r5, #1
 24c:	08000b00 	stmdaeq	r0, {r8, r9, fp}
 250:	0100f003 	tsteq	r0, r3	; <UNPREDICTABLE>
 254:	01000102 	tsteq	r0, r2, lsl #2
 258:	Address 0x00000258 is out of bounds.


Disassembly of section .debug_str:

00000000 <.debug_str>:
   0:	525f4252 	subspl	r4, pc, #536870917	; 0x20000005
   4:	415f4343 	cmpmi	pc, r3, asr #6
   8:	52334248 	eorspl	r4, r3, #72, 4	; 0x80000004
   c:	00525453 	subseq	r5, r2, r3, asr r4
  10:	524b434c 	subpl	r4, fp, #76, 6	; 0x30000001
  14:	5f425200 	svcpl	0x00425200
  18:	5f434352 	svcpl	0x00434352
  1c:	52434943 	subpl	r4, r3, #1097728	; 0x10c000
  20:	5f425200 	svcpl	0x00425200
  24:	5f434352 	svcpl	0x00434352
  28:	46433244 	strbmi	r3, [r3], -r4, asr #4
  2c:	52005247 	andpl	r5, r0, #1879048196	; 0x70000004
  30:	43525f42 	cmpmi	r2, #264	; 0x108
  34:	44425f43 	strbmi	r5, [r2], #-3907	; 0xfffff0bd
  38:	4f005243 	svcmi	0x00005243
  3c:	45505954 	ldrbmi	r5, [r0, #-2388]	; 0xfffff6ac
  40:	42520052 	subsmi	r0, r2, #82	; 0x52
  44:	4343525f 	movtmi	r5, #12895	; 0x325f
  48:	4250415f 	subsmi	r4, r0, #-1073741801	; 0xc0000017
  4c:	54535233 	ldrbpl	r5, [r3], #-563	; 0xfffffdcd
  50:	42520052 	subsmi	r0, r2, #82	; 0x52
  54:	4343525f 	movtmi	r5, #12895	; 0x325f
  58:	4248415f 	submi	r4, r8, #-1073741801	; 0xc0000017
  5c:	45504c34 	ldrbmi	r4, [r0, #-3124]	; 0xfffff3cc
  60:	4d00524e 	sfmmi	f5, 4, [r0, #-312]	; 0xfffffec8
  64:	5245444f 	subpl	r4, r5, #1325400064	; 0x4f000000
  68:	6e6f6c00 	cdpvs	12, 6, cr6, cr15, cr0, {0}
  6c:	6f6c2067 	svcvs	0x006c2067
  70:	7520676e 	strvc	r6, [r0, #-1902]!	; 0xfffff892
  74:	6769736e 	strbvs	r7, [r9, -lr, ror #6]!
  78:	2064656e 	rsbcs	r6, r4, lr, ror #10
  7c:	00746e69 	rsbseq	r6, r4, r9, ror #28
  80:	525f4252 	subspl	r4, pc, #536870917	; 0x20000005
  84:	435f4343 	cmpmi	pc, #201326593	; 0xc000001
  88:	00524746 	subseq	r4, r2, r6, asr #14
  8c:	44505550 	ldrbmi	r5, [r0], #-1360	; 0xfffffab0
  90:	42520052 	subsmi	r0, r2, #82	; 0x52
  94:	4343525f 	movtmi	r5, #12895	; 0x325f
  98:	4250415f 	subsmi	r4, r0, #-1073741801	; 0xc0000017
  9c:	524e4533 	subpl	r4, lr, #213909504	; 0xcc00000
  a0:	5f425200 	svcpl	0x00425200
  a4:	5f434352 	svcpl	0x00434352
  a8:	43495343 	movtmi	r5, #37699	; 0x9343
  ac:	00524746 	subseq	r4, r2, r6, asr #14
  b0:	525f4252 	subspl	r4, pc, #536870917	; 0x20000005
  b4:	505f4343 	subspl	r4, pc, r3, asr #6
  b8:	46334c4c 	ldrtmi	r4, [r3], -ip, asr #24
  bc:	52434152 	subpl	r4, r3, #-2147483628	; 0x80000014
  c0:	5f425200 	svcpl	0x00425200
  c4:	5f434352 	svcpl	0x00434352
  c8:	00524347 	subseq	r4, r2, r7, asr #6
  cc:	53434343 	movtpl	r4, #13123	; 0x3343
  d0:	53420052 	movtpl	r0, #8274	; 0x2052
  d4:	41005252 	tstmi	r0, r2, asr r2
  d8:	5f334344 	svcpl	0x00334344
  dc:	48515249 	ldmdami	r1, {r0, r3, r6, r9, ip, lr}^
  e0:	6c646e61 	stclvs	14, cr6, [r4], #-388	; 0xfffffe7c
  e4:	52007265 	andpl	r7, r0, #1342177286	; 0x50000006
  e8:	52455345 	subpl	r5, r5, #335544321	; 0x14000001
  ec:	31444556 	cmpcc	r4, r6, asr r5
  f0:	45520031 	ldrbmi	r0, [r2, #-49]	; 0xffffffcf
  f4:	56524553 			; <UNDEFINED> instruction: 0x56524553
  f8:	32314445 	eorscc	r4, r1, #1157627904	; 0x45000000
  fc:	53455200 	movtpl	r5, #20992	; 0x5200
 100:	45565245 	ldrbmi	r5, [r6, #-581]	; 0xfffffdbb
 104:	00333144 	eorseq	r3, r3, r4, asr #2
 108:	525f4252 	subspl	r4, pc, #536870917	; 0x20000005
 10c:	445f4343 	ldrbmi	r4, [pc], #-835	; 114 <_Min_Heap_Size-0xec>
 110:	524d4133 	subpl	r4, sp, #-1073741812	; 0xc000000c
 114:	5f425200 	svcpl	0x00425200
 118:	5f434352 	svcpl	0x00434352
 11c:	314c4c50 	cmpcc	ip, r0, asr ip
 120:	43415246 	movtmi	r5, #4678	; 0x1246
 124:	42520052 	subsmi	r0, r2, #82	; 0x52
 128:	4343525f 	movtmi	r5, #12895	; 0x325f
 12c:	4250415f 	subsmi	r4, r0, #-1073741801	; 0xc0000017
 130:	524e4532 	subpl	r4, lr, #209715200	; 0xc800000
 134:	5f425200 	svcpl	0x00425200
 138:	5f434352 	svcpl	0x00434352
 13c:	43495348 	movtmi	r5, #37704	; 0x9348
 140:	00524746 	subseq	r4, r2, r6, asr #14
 144:	676e6f6c 	strbvs	r6, [lr, -ip, ror #30]!
 148:	6e6f6c20 	cdpvs	12, 6, cr6, cr15, cr0, {1}
 14c:	6e692067 	cdpvs	0, 6, cr2, cr9, cr7, {3}
 150:	42520074 	subsmi	r0, r2, #116	; 0x74
 154:	4343525f 	movtmi	r5, #12895	; 0x325f
 158:	4c4c505f 	mcrrmi	0, 5, r5, ip, cr15
 15c:	56494432 			; <UNDEFINED> instruction: 0x56494432
 160:	42520052 	subsmi	r0, r2, #82	; 0x52
 164:	4343525f 	movtmi	r5, #12895	; 0x325f
 168:	5253525f 	subspl	r5, r3, #-268435451	; 0xf0000005
 16c:	56434300 	strbpl	r4, [r3], -r0, lsl #6
 170:	42520052 	subsmi	r0, r2, #82	; 0x52
 174:	4343525f 	movtmi	r5, #12895	; 0x325f
 178:	4250415f 	subsmi	r4, r0, #-1073741801	; 0xc0000017
 17c:	4e454c31 	mcrmi	12, 2, r4, cr5, cr1, {1}
 180:	534f0052 	movtpl	r0, #61522	; 0xf052
 184:	44454550 	strbmi	r4, [r5], #-1360	; 0xfffffab0
 188:	5f5f0052 	svcpl	0x005f0052
 18c:	746e6975 	strbtvc	r6, [lr], #-2421	; 0xfffff68b
 190:	745f3233 	ldrbvc	r3, [pc], #-563	; 198 <_Min_Heap_Size-0x68>
 194:	5f425200 	svcpl	0x00425200
 198:	5f434352 	svcpl	0x00434352
 19c:	52454943 	subpl	r4, r5, #1097728	; 0x10c000
 1a0:	52575000 	subspl	r5, r7, #0
 1a4:	47005243 	strmi	r5, [r0, -r3, asr #4]
 1a8:	5f4f4950 	svcpl	0x004f4950
 1ac:	65707954 	ldrbvs	r7, [r0, #-2388]!	; 0xfffff6ac
 1b0:	00666544 	rsbeq	r6, r6, r4, asr #10
 1b4:	525f4252 	subspl	r4, pc, #536870917	; 0x20000005
 1b8:	415f4343 	cmpmi	pc, r3, asr #6
 1bc:	4c314250 	lfmmi	f4, 4, [r1], #-320	; 0xfffffec0
 1c0:	52545352 	subspl	r5, r4, #1207959553	; 0x48000001
 1c4:	43435200 	movtmi	r5, #12800	; 0x3200
 1c8:	7079545f 	rsbsvc	r5, r9, pc, asr r4
 1cc:	66654465 	strbtvs	r4, [r5], -r5, ror #8
 1d0:	554e4700 	strbpl	r4, [lr, #-1792]	; 0xfffff900
 1d4:	37314320 	ldrcc	r4, [r1, -r0, lsr #6]!
 1d8:	2e303120 	rsfcssp	f3, f0, f0
 1dc:	20312e33 	eorscs	r2, r1, r3, lsr lr
 1e0:	31323032 	teqcc	r2, r2, lsr r0
 1e4:	34323830 	ldrtcc	r3, [r2], #-2096	; 0xfffff7d0
 1e8:	65722820 	ldrbvs	r2, [r2, #-2080]!	; 0xfffff7e0
 1ec:	7361656c 	cmnvc	r1, #108, 10	; 0x1b000000
 1f0:	2d202965 			; <UNDEFINED> instruction: 0x2d202965
 1f4:	7568746d 	strbvc	r7, [r8, #-1133]!	; 0xfffffb93
 1f8:	2d20626d 	sfmcs	f6, 4, [r0, #-436]!	; 0xfffffe4c
 1fc:	7570636d 	ldrbvc	r6, [r0, #-877]!	; 0xfffffc93
 200:	726f633d 	rsbvc	r6, pc, #-201326592	; 0xf4000000
 204:	2d786574 	cfldr64cs	mvdx6, [r8, #-464]!	; 0xfffffe30
 208:	2d20376d 	stccs	7, cr3, [r0, #-436]!	; 0xfffffe4c
 20c:	6f6c666d 	svcvs	0x006c666d
 210:	612d7461 			; <UNDEFINED> instruction: 0x612d7461
 214:	733d6962 	teqvc	sp, #1605632	; 0x188000
 218:	2074666f 	rsbscs	r6, r4, pc, ror #12
 21c:	72616d2d 	rsbvc	r6, r1, #2880	; 0xb40
 220:	613d6863 	teqvs	sp, r3, ror #16
 224:	37766d72 			; <UNDEFINED> instruction: 0x37766d72
 228:	206d2d65 	rsbcs	r2, sp, r5, ror #26
 22c:	2d20672d 	stccs	7, cr6, [r0, #-180]!	; 0xffffff4c
 230:	4300304f 	movwmi	r3, #79	; 0x4f
 234:	4f575c3a 	svcmi	0x00575c3a
 238:	525c4b52 	subspl	r4, ip, #83968	; 0x14800
 23c:	49424f45 	stmdbmi	r2, {r0, r2, r6, r8, r9, sl, fp, lr}^
 240:	55505f54 	ldrbpl	r5, [r0, #-3924]	; 0xfffff0ac
 244:	6d655c42 	stclvs	12, cr5, [r5, #-264]!	; 0xfffffef8
 248:	72705c62 	rsbsvc	r5, r0, #25088	; 0x6200
 24c:	63656a6f 	cmnvs	r5, #454656	; 0x6f000
 250:	6e5c7374 	mrcvs	3, 2, r7, cr12, cr4, {3}
 254:	656c6375 	strbvs	r6, [ip, #-885]!	; 0xfffffc8b
 258:	37685f6f 	strbcc	r5, [r8, -pc, ror #30]!
 25c:	485f3534 	ldmdami	pc, {r2, r4, r5, r8, sl, ip, sp}^	; <UNPREDICTABLE>
 260:	75625c37 	strbvc	r5, [r2, #-3127]!	; 0xfffff3c9
 264:	00646c69 	rsbeq	r6, r4, r9, ror #24
 268:	525f4252 	subspl	r4, pc, #536870917	; 0x20000005
 26c:	415f4343 	cmpmi	pc, r3, asr #6
 270:	52324248 	eorspl	r4, r2, #72, 4	; 0x80000004
 274:	00525453 	subseq	r5, r2, r3, asr r4
 278:	525f4252 	subspl	r4, pc, #536870917	; 0x20000005
 27c:	415f4343 	cmpmi	pc, r3, asr #6
 280:	4c344250 	lfmmi	f4, 4, [r4], #-320	; 0xfffffec0
 284:	524e4550 	subpl	r4, lr, #80, 10	; 0x14000000
 288:	6f687300 	svcvs	0x00687300
 28c:	75207472 	strvc	r7, [r0, #-1138]!	; 0xfffffb8e
 290:	6769736e 	strbvs	r7, [r9, -lr, ror #6]!
 294:	2064656e 	rsbcs	r6, r4, lr, ror #10
 298:	00746e69 	rsbseq	r6, r4, r9, ror #28
 29c:	525f4252 	subspl	r4, pc, #536870917	; 0x20000005
 2a0:	415f4343 	cmpmi	pc, r3, asr #6
 2a4:	48314250 	ldmdami	r1!, {r4, r6, r9, lr}
 2a8:	4e45504c 	cdpmi	0, 4, cr5, cr5, cr12, {2}
 2ac:	42520052 	subsmi	r0, r2, #82	; 0x52
 2b0:	4343525f 	movtmi	r5, #12895	; 0x325f
 2b4:	4248415f 	submi	r4, r8, #-1073741801	; 0xc0000017
 2b8:	524e4534 	subpl	r4, lr, #52, 10	; 0xd000000
 2bc:	5f425200 	svcpl	0x00425200
 2c0:	5f434352 	svcpl	0x00434352
 2c4:	52464943 	subpl	r4, r6, #1097728	; 0x10c000
 2c8:	2f3a4300 	svccs	0x003a4300
 2cc:	4b524f57 	blmi	1494030 <_Min_Stack_Size+0x1493c30>
 2d0:	4f45522f 	svcmi	0x0045522f
 2d4:	5f544942 	svcpl	0x00544942
 2d8:	2f425550 	svccs	0x00425550
 2dc:	2f626d65 	svccs	0x00626d65
 2e0:	6a6f7270 	bvs	1bdcca8 <_Min_Stack_Size+0x1bdc8a8>
 2e4:	73746365 	cmnvc	r4, #-1811939327	; 0x94000001
 2e8:	63756e2f 	cmnvs	r5, #752	; 0x2f0
 2ec:	5f6f656c 	svcpl	0x006f656c
 2f0:	35343768 	ldrcc	r3, [r4, #-1896]!	; 0xfffff898
 2f4:	2f37485f 	svccs	0x0037485f
 2f8:	6c697562 	cfstr64vs	mvdx7, [r9], #-392	; 0xfffffe78
 2fc:	2e2e2f64 	cdpcs	15, 2, cr2, cr14, cr4, {3}
 300:	69616d2f 	stmdbvs	r1!, {r0, r1, r2, r3, r5, r8, sl, fp, sp, lr}^
 304:	00632e6e 	rsbeq	r2, r3, lr, ror #28
 308:	525f4252 	subspl	r4, pc, #536870917	; 0x20000005
 30c:	415f4343 	cmpmi	pc, r3, asr #6
 310:	4c314248 	lfmmi	f4, 4, [r1], #-288	; 0xfffffee0
 314:	524e4550 	subpl	r4, lr, #80, 10	; 0x14000000
 318:	6f687300 	svcvs	0x00687300
 31c:	69207472 	stmdbvs	r0!, {r1, r4, r5, r6, sl, ip, sp, lr}
 320:	5500746e 	strpl	r7, [r0, #-1134]	; 0xfffffb92
 324:	00303152 	eorseq	r3, r0, r2, asr r1
 328:	31315255 	teqcc	r1, r5, asr r2
 32c:	5f425200 	svcpl	0x00425200
 330:	5f434352 	svcpl	0x00434352
 334:	32425041 	subcc	r5, r2, #65	; 0x41
 338:	52545352 	subspl	r5, r4, #1207959553	; 0x48000001
 33c:	5f425200 	svcpl	0x00425200
 340:	5f434352 	svcpl	0x00434352
 344:	33424841 	movtcc	r4, #10305	; 0x2841
 348:	00524e45 	subseq	r4, r2, r5, asr #28
 34c:	525f4252 	subspl	r4, pc, #536870917	; 0x20000005
 350:	415f4343 	cmpmi	pc, r3, asr #6
 354:	48314250 	ldmdami	r1!, {r4, r6, r9, lr}
 358:	00524e45 	subseq	r4, r2, r5, asr #28
 35c:	525f4252 	subspl	r4, pc, #536870917	; 0x20000005
 360:	445f4343 	ldrbmi	r4, [pc], #-835	; 368 <_Min_Heap_Size+0x168>
 364:	49434332 	stmdbmi	r3, {r1, r4, r5, r8, r9, lr}^
 368:	00523150 	subseq	r3, r2, r0, asr r1
 36c:	525f4252 	subspl	r4, pc, #536870917	; 0x20000005
 370:	435f4343 	cmpmi	pc, #201326593	; 0xc000001
 374:	52435252 	subpl	r5, r3, #536870917	; 0x20000005
 378:	474b5000 	strbmi	r5, [fp, -r0]
 37c:	45520052 	ldrbmi	r0, [r2, #-82]	; 0xffffffae
 380:	56524553 			; <UNDEFINED> instruction: 0x56524553
 384:	00314445 	eorseq	r4, r1, r5, asr #8
 388:	45534552 	ldrbmi	r4, [r3, #-1362]	; 0xfffffaae
 38c:	44455652 	strbmi	r5, [r5], #-1618	; 0xfffff9ae
 390:	45520032 	ldrbmi	r0, [r2, #-50]	; 0xffffffce
 394:	56524553 			; <UNDEFINED> instruction: 0x56524553
 398:	00334445 	eorseq	r4, r3, r5, asr #8
 39c:	525f4252 	subspl	r4, pc, #536870917	; 0x20000005
 3a0:	505f4343 	subspl	r4, pc, r3, asr #6
 3a4:	44314c4c 	ldrtmi	r4, [r1], #-3148	; 0xfffff3b4
 3a8:	00525649 	subseq	r5, r2, r9, asr #12
 3ac:	45534552 	ldrbmi	r4, [r3, #-1362]	; 0xfffffaae
 3b0:	44455652 	strbmi	r5, [r5], #-1618	; 0xfffff9ae
 3b4:	45520035 	ldrbmi	r0, [r2, #-53]	; 0xffffffcb
 3b8:	56524553 			; <UNDEFINED> instruction: 0x56524553
 3bc:	00364445 	eorseq	r4, r6, r5, asr #8
 3c0:	314d4954 	cmpcc	sp, r4, asr r9
 3c4:	52495f35 	subpl	r5, r9, #53, 30	; 0xd4
 3c8:	6e614851 	mcrvs	8, 3, r4, cr1, cr1, {2}
 3cc:	72656c64 	rsbvc	r6, r5, #100, 24	; 0x6400
 3d0:	5f425200 	svcpl	0x00425200
 3d4:	5f434352 	svcpl	0x00434352
 3d8:	324c4c50 	subcc	r4, ip, #80, 24	; 0x5000
 3dc:	43415246 	movtmi	r5, #4678	; 0x1246
 3e0:	79530052 	ldmdbvc	r3, {r1, r4, r6}^
 3e4:	6d657473 	cfstrdvs	mvd7, [r5, #-460]!	; 0xfffffe34
 3e8:	74696e49 	strbtvc	r6, [r9], #-3657	; 0xfffff1b7
 3ec:	5f425200 	svcpl	0x00425200
 3f0:	5f434352 	svcpl	0x00434352
 3f4:	32424841 	subcc	r4, r2, #4259840	; 0x410000
 3f8:	00524e45 	subseq	r4, r2, r5, asr #28
 3fc:	525f4252 	subspl	r4, pc, #536870917	; 0x20000005
 400:	415f4343 	cmpmi	pc, r3, asr #6
 404:	52344248 	eorspl	r4, r4, #72, 4	; 0x80000004
 408:	00525453 	subseq	r5, r2, r3, asr r4
 40c:	43535953 	cmpmi	r3, #1359872	; 0x14c000
 410:	545f4746 	ldrbpl	r4, [pc], #-1862	; 418 <_Min_Stack_Size+0x18>
 414:	44657079 	strbtmi	r7, [r5], #-121	; 0xffffff87
 418:	75006665 	strvc	r6, [r0, #-1637]	; 0xfffff99b
 41c:	6769736e 	strbvs	r7, [r9, -lr, ror #6]!
 420:	2064656e 	rsbcs	r6, r4, lr, ror #10
 424:	72616863 	rsbvc	r6, r1, #6488064	; 0x630000
 428:	5f425200 	svcpl	0x00425200
 42c:	5f434352 	svcpl	0x00434352
 430:	46433344 	strbmi	r3, [r3], -r4, asr #6
 434:	52005247 	andpl	r5, r0, #1879048196	; 0x70000004
 438:	43525f42 	cmpmi	r2, #264	; 0x108
 43c:	52435f43 	subpl	r5, r3, #268	; 0x10c
 440:	5f425200 	svcpl	0x00425200
 444:	5f434352 	svcpl	0x00434352
 448:	434c4c50 	movtmi	r4, #52304	; 0xcc50
 44c:	4c45534b 	mcrrmi	3, 4, r5, r5, cr11
 450:	42520052 	subsmi	r0, r2, #82	; 0x52
 454:	4343525f 	movtmi	r5, #12895	; 0x325f
 458:	4331445f 	teqmi	r1, #1593835520	; 0x5f000000
 45c:	00524746 	subseq	r4, r2, r6, asr #14
 460:	525f4252 	subspl	r4, pc, #536870917	; 0x20000005
 464:	445f4343 	ldrbmi	r4, [pc], #-835	; 46c <_Min_Stack_Size+0x6c>
 468:	49434332 	stmdbmi	r3, {r1, r4, r5, r8, r9, lr}^
 46c:	00523250 	subseq	r3, r2, r0, asr r2
 470:	52434d50 	subpl	r4, r3, #80, 26	; 0x1400
 474:	5f425200 	svcpl	0x00425200
 478:	5f434352 	svcpl	0x00434352
 47c:	31425041 	cmpcc	r2, r1, asr #32
 480:	45504c4c 	ldrbmi	r4, [r0, #-3148]	; 0xfffff3b4
 484:	5200524e 	andpl	r5, r0, #-536870908	; 0xe0000004
 488:	52455345 	subpl	r5, r5, #335544321	; 0x14000001
 48c:	34444556 	strbcc	r4, [r4], #-1366	; 0xfffffaaa
 490:	53455200 	movtpl	r5, #20992	; 0x5200
 494:	45565245 	ldrbmi	r5, [r6, #-581]	; 0xfffffdbb
 498:	52003844 	andpl	r3, r0, #68, 16	; 0x440000
 49c:	43525f42 	cmpmi	r2, #264	; 0x108
 4a0:	50415f43 	subpl	r5, r1, r3, asr #30
 4a4:	504c3242 	subpl	r3, ip, r2, asr #4
 4a8:	00524e45 	subseq	r4, r2, r5, asr #28
 4ac:	525f4252 	subspl	r4, pc, #536870917	; 0x20000005
 4b0:	415f4343 	cmpmi	pc, r3, asr #6
 4b4:	45314248 	ldrmi	r4, [r1, #-584]!	; 0xfffffdb8
 4b8:	5200524e 	andpl	r5, r0, #-536870908	; 0xe0000004
 4bc:	43525f42 	cmpmi	r2, #264	; 0x108
 4c0:	48415f43 	stmdami	r1, {r0, r1, r6, r8, r9, sl, fp, ip, lr}^
 4c4:	53523142 	cmppl	r2, #-2147483632	; 0x80000010
 4c8:	52005254 	andpl	r5, r0, #84, 4	; 0x40000005
 4cc:	43525f42 	cmpmi	r2, #264	; 0x108
 4d0:	50415f43 	subpl	r5, r1, r3, asr #30
 4d4:	53523442 	cmppl	r2, #1107296256	; 0x42000000
 4d8:	52005254 	andpl	r5, r0, #84, 4	; 0x40000005
 4dc:	43525f42 	cmpmi	r2, #264	; 0x108
 4e0:	4c505f43 	mrrcmi	15, 4, r5, r0, cr3
 4e4:	4746434c 	strbmi	r4, [r6, -ip, asr #6]
 4e8:	42520052 	subsmi	r0, r2, #82	; 0x52
 4ec:	4343525f 	movtmi	r5, #12895	; 0x325f
 4f0:	4331445f 	teqmi	r1, #1593835520	; 0x5f000000
 4f4:	52504943 	subspl	r4, r0, #1097728	; 0x10c000
 4f8:	5f425200 	svcpl	0x00425200
 4fc:	5f434352 	svcpl	0x00434352
 500:	43433344 	movtmi	r3, #13124	; 0x3344
 504:	00525049 	subseq	r5, r2, r9, asr #32
 508:	32315255 	eorscc	r5, r1, #1342177285	; 0x50000005
 50c:	31525500 	cmpcc	r2, r0, lsl #10
 510:	52550033 	subspl	r0, r5, #51	; 0x33
 514:	55003431 	strpl	r3, [r0, #-1073]	; 0xfffffbcf
 518:	00353152 	eorseq	r3, r5, r2, asr r1
 51c:	36315255 			; <UNDEFINED> instruction: 0x36315255
 520:	31525500 	cmpcc	r2, r0, lsl #10
 524:	42520037 	subsmi	r0, r2, #55	; 0x37
 528:	4343525f 	movtmi	r5, #12895	; 0x325f
 52c:	4250415f 	subsmi	r4, r0, #-1073741801	; 0xc0000017
 530:	53524831 	cmppl	r2, #3211264	; 0x310000
 534:	52005254 	andpl	r5, r0, #84, 4	; 0x40000005
 538:	43525f42 	cmpmi	r2, #264	; 0x108
 53c:	48415f43 	stmdami	r1, {r0, r1, r6, r8, r9, sl, fp, ip, lr}^
 540:	504c3242 	subpl	r3, ip, r2, asr #4
 544:	00524e45 	subseq	r4, r2, r5, asr #28
 548:	525f4252 	subspl	r4, pc, #536870917	; 0x20000005
 54c:	415f4343 	cmpmi	pc, r3, asr #6
 550:	4c334250 	lfmmi	f4, 4, [r3], #-320	; 0xfffffec0
 554:	524e4550 	subpl	r4, lr, #80, 10	; 0x14000000
 558:	5f425200 	svcpl	0x00425200
 55c:	5f434352 	svcpl	0x00434352
 560:	334c4c50 	movtcc	r4, #52304	; 0xcc50
 564:	52564944 	subspl	r4, r6, #68, 18	; 0x110000
 568:	43434300 	movtmi	r4, #13056	; 0x3300
 56c:	42520052 	subsmi	r0, r2, #82	; 0x52
 570:	4343525f 	movtmi	r5, #12895	; 0x325f
 574:	5253435f 	subspl	r4, r3, #2080374785	; 0x7c000001
 578:	69616d00 	stmdbvs	r1!, {r8, sl, fp, sp, lr}^
 57c:	4252006e 	subsmi	r0, r2, #110	; 0x6e
 580:	4343525f 	movtmi	r5, #12895	; 0x325f
 584:	4248415f 	submi	r4, r8, #-1073741801	; 0xc0000017
 588:	45504c33 	ldrbmi	r4, [r0, #-3123]	; 0xfffff3cd
 58c:	4500524e 	strmi	r5, [r0, #-590]	; 0xfffffdb2
 590:	43495458 	movtmi	r5, #37976	; 0x9458
 594:	42520052 	subsmi	r0, r2, #82	; 0x52
 598:	4343525f 	movtmi	r5, #12895	; 0x325f
 59c:	4250415f 	subsmi	r4, r0, #-1073741801	; 0xc0000017
 5a0:	524e4534 	subpl	r4, lr, #52, 10	; 0xd000000
 5a4:	2f3a4300 	svccs	0x003a4300
 5a8:	4b524f57 	blmi	149430c <_Min_Stack_Size+0x1493f0c>
 5ac:	4f45522f 	svcmi	0x0045522f
 5b0:	5f544942 	svcpl	0x00544942
 5b4:	2f425550 	svccs	0x00425550
 5b8:	2f626d65 	svccs	0x00626d65
 5bc:	6a6f7270 	bvs	1bdcf84 <_Min_Stack_Size+0x1bdcb84>
 5c0:	73746365 	cmnvc	r4, #-1811939327	; 0x94000001
 5c4:	63756e2f 	cmnvs	r5, #752	; 0x2f0
 5c8:	5f6f656c 	svcpl	0x006f656c
 5cc:	35343768 	ldrcc	r3, [r4, #-1896]!	; 0xfffff898
 5d0:	2f37485f 	svccs	0x0037485f
 5d4:	6c697562 	cfstr64vs	mvdx7, [r9], #-392	; 0xfffffe78
 5d8:	2e2e2f64 	cdpcs	15, 2, cr2, cr14, cr4, {3}
 5dc:	6174735c 	cmnvs	r4, ip, asr r3
 5e0:	70757472 	rsbsvc	r7, r5, r2, ror r4
 5e4:	4700732e 	strmi	r7, [r0, -lr, lsr #6]
 5e8:	4120554e 			; <UNDEFINED> instruction: 0x4120554e
 5ec:	2e322053 	mrccs	0, 1, r2, cr2, cr3, {2}
 5f0:	312e3633 			; <UNDEFINED> instruction: 0x312e3633
	...

Disassembly of section .comment:

00000000 <.comment>:
   0:	3a434347 	bcc	10d0d24 <_Min_Stack_Size+0x10d0924>
   4:	4e472820 	cdpmi	8, 4, cr2, cr7, cr0, {1}
   8:	72412055 	subvc	r2, r1, #85	; 0x55
   c:	6d45206d 	stclvs	0, cr2, [r5, #-436]	; 0xfffffe4c
  10:	64646562 	strbtvs	r6, [r4], #-1378	; 0xfffffa9e
  14:	54206465 	strtpl	r6, [r0], #-1125	; 0xfffffb9b
  18:	636c6f6f 	cmnvs	ip, #444	; 0x1bc
  1c:	6e696168 	powvsez	f6, f1, #0.0
  20:	2e303120 	rsfcssp	f3, f0, f0
  24:	30322d33 	eorscc	r2, r2, r3, lsr sp
  28:	312e3132 			; <UNDEFINED> instruction: 0x312e3132
  2c:	31202930 			; <UNDEFINED> instruction: 0x31202930
  30:	2e332e30 	mrccs	14, 1, r2, cr3, cr0, {1}
  34:	30322031 	eorscc	r2, r2, r1, lsr r0
  38:	38303132 	ldmdacc	r0!, {r1, r4, r5, r8, ip, sp}
  3c:	28203432 	stmdacs	r0!, {r1, r4, r5, sl, ip, sp}
  40:	656c6572 	strbvs	r6, [ip, #-1394]!	; 0xfffffa8e
  44:	29657361 	stmdbcs	r5!, {r0, r5, r6, r8, r9, ip, sp, lr}^
	...

Disassembly of section .debug_ranges:

00000000 <.debug_ranges>:
   0:	ffffffff 			; <UNDEFINED> instruction: 0xffffffff
   4:	00000000 	andeq	r0, r0, r0
   8:	08000ab0 	stmdaeq	r0, {r4, r5, r7, r9, fp}
   c:	08000b00 	stmdaeq	r0, {r8, r9, fp}
  10:	08000b00 	stmdaeq	r0, {r8, r9, fp}
  14:	08000b02 	stmdaeq	r0, {r1, r8, r9, fp}
	...
