
baza_f103.elf:     file format elf32-littlearm


Disassembly of section .text:

08000000 <__do_global_dtors_aux-0x130>:
 8000000:	20005000 	andcs	r5, r0, r0
 8000004:	0800083d 	stmdaeq	r0, {r0, r2, r3, r4, r5, fp}
 8000008:	08000855 	stmdaeq	r0, {r0, r2, r4, r6, fp}
 800000c:	08000855 	stmdaeq	r0, {r0, r2, r4, r6, fp}
 8000010:	08000855 	stmdaeq	r0, {r0, r2, r4, r6, fp}
 8000014:	08000855 	stmdaeq	r0, {r0, r2, r4, r6, fp}
 8000018:	08000855 	stmdaeq	r0, {r0, r2, r4, r6, fp}
	...
 800002c:	08000855 	stmdaeq	r0, {r0, r2, r4, r6, fp}
 8000030:	08000855 	stmdaeq	r0, {r0, r2, r4, r6, fp}
 8000034:	00000000 	andeq	r0, r0, r0
 8000038:	08000855 	stmdaeq	r0, {r0, r2, r4, r6, fp}
 800003c:	08000855 	stmdaeq	r0, {r0, r2, r4, r6, fp}
 8000040:	08000855 	stmdaeq	r0, {r0, r2, r4, r6, fp}
 8000044:	08000855 	stmdaeq	r0, {r0, r2, r4, r6, fp}
 8000048:	08000855 	stmdaeq	r0, {r0, r2, r4, r6, fp}
 800004c:	08000855 	stmdaeq	r0, {r0, r2, r4, r6, fp}
 8000050:	08000855 	stmdaeq	r0, {r0, r2, r4, r6, fp}
 8000054:	08000855 	stmdaeq	r0, {r0, r2, r4, r6, fp}
 8000058:	08000855 	stmdaeq	r0, {r0, r2, r4, r6, fp}
 800005c:	08000855 	stmdaeq	r0, {r0, r2, r4, r6, fp}
 8000060:	08000855 	stmdaeq	r0, {r0, r2, r4, r6, fp}
 8000064:	08000855 	stmdaeq	r0, {r0, r2, r4, r6, fp}
 8000068:	08000855 	stmdaeq	r0, {r0, r2, r4, r6, fp}
 800006c:	08000855 	stmdaeq	r0, {r0, r2, r4, r6, fp}
 8000070:	08000855 	stmdaeq	r0, {r0, r2, r4, r6, fp}
 8000074:	08000855 	stmdaeq	r0, {r0, r2, r4, r6, fp}
 8000078:	08000855 	stmdaeq	r0, {r0, r2, r4, r6, fp}
 800007c:	08000855 	stmdaeq	r0, {r0, r2, r4, r6, fp}
 8000080:	08000855 	stmdaeq	r0, {r0, r2, r4, r6, fp}
 8000084:	08000855 	stmdaeq	r0, {r0, r2, r4, r6, fp}
 8000088:	08000855 	stmdaeq	r0, {r0, r2, r4, r6, fp}
 800008c:	08000855 	stmdaeq	r0, {r0, r2, r4, r6, fp}
 8000090:	08000855 	stmdaeq	r0, {r0, r2, r4, r6, fp}
 8000094:	08000855 	stmdaeq	r0, {r0, r2, r4, r6, fp}
 8000098:	08000855 	stmdaeq	r0, {r0, r2, r4, r6, fp}
 800009c:	08000855 	stmdaeq	r0, {r0, r2, r4, r6, fp}
 80000a0:	08000855 	stmdaeq	r0, {r0, r2, r4, r6, fp}
 80000a4:	08000855 	stmdaeq	r0, {r0, r2, r4, r6, fp}
 80000a8:	08000855 	stmdaeq	r0, {r0, r2, r4, r6, fp}
 80000ac:	08000855 	stmdaeq	r0, {r0, r2, r4, r6, fp}
 80000b0:	08000855 	stmdaeq	r0, {r0, r2, r4, r6, fp}
 80000b4:	08000855 	stmdaeq	r0, {r0, r2, r4, r6, fp}
 80000b8:	08000855 	stmdaeq	r0, {r0, r2, r4, r6, fp}
 80000bc:	08000855 	stmdaeq	r0, {r0, r2, r4, r6, fp}
 80000c0:	08000855 	stmdaeq	r0, {r0, r2, r4, r6, fp}
 80000c4:	08000855 	stmdaeq	r0, {r0, r2, r4, r6, fp}
 80000c8:	08000855 	stmdaeq	r0, {r0, r2, r4, r6, fp}
 80000cc:	08000855 	stmdaeq	r0, {r0, r2, r4, r6, fp}
 80000d0:	08000855 	stmdaeq	r0, {r0, r2, r4, r6, fp}
 80000d4:	08000855 	stmdaeq	r0, {r0, r2, r4, r6, fp}
 80000d8:	08000855 	stmdaeq	r0, {r0, r2, r4, r6, fp}
 80000dc:	08000855 	stmdaeq	r0, {r0, r2, r4, r6, fp}
 80000e0:	08000855 	stmdaeq	r0, {r0, r2, r4, r6, fp}
 80000e4:	08000855 	stmdaeq	r0, {r0, r2, r4, r6, fp}
 80000e8:	00000000 	andeq	r0, r0, r0
 80000ec:	08000855 	stmdaeq	r0, {r0, r2, r4, r6, fp}
 80000f0:	08000855 	stmdaeq	r0, {r0, r2, r4, r6, fp}
 80000f4:	08000855 	stmdaeq	r0, {r0, r2, r4, r6, fp}
 80000f8:	08000855 	stmdaeq	r0, {r0, r2, r4, r6, fp}
 80000fc:	08000855 	stmdaeq	r0, {r0, r2, r4, r6, fp}
 8000100:	08000855 	stmdaeq	r0, {r0, r2, r4, r6, fp}
 8000104:	08000855 	stmdaeq	r0, {r0, r2, r4, r6, fp}
 8000108:	08000855 	stmdaeq	r0, {r0, r2, r4, r6, fp}
 800010c:	08000855 	stmdaeq	r0, {r0, r2, r4, r6, fp}
 8000110:	08000855 	stmdaeq	r0, {r0, r2, r4, r6, fp}
 8000114:	08000855 	stmdaeq	r0, {r0, r2, r4, r6, fp}
 8000118:	08000855 	stmdaeq	r0, {r0, r2, r4, r6, fp}
 800011c:	08000855 	stmdaeq	r0, {r0, r2, r4, r6, fp}
 8000120:	08000855 	stmdaeq	r0, {r0, r2, r4, r6, fp}
 8000124:	08000855 	stmdaeq	r0, {r0, r2, r4, r6, fp}
 8000128:	08000855 	stmdaeq	r0, {r0, r2, r4, r6, fp}
 800012c:	08000855 	stmdaeq	r0, {r0, r2, r4, r6, fp}

08000130 <__do_global_dtors_aux>:
 8000130:	e92d4010 	push	{r4, lr}
 8000134:	e59f4028 	ldr	r4, [pc, #40]	; 8000164 <__do_global_dtors_aux+0x34>
 8000138:	e5d43000 	ldrb	r3, [r4]
 800013c:	e3530000 	cmp	r3, #0
 8000140:	1a000005 	bne	800015c <__do_global_dtors_aux+0x2c>
 8000144:	e59f301c 	ldr	r3, [pc, #28]	; 8000168 <__do_global_dtors_aux+0x38>
 8000148:	e3530000 	cmp	r3, #0
 800014c:	159f0018 	ldrne	r0, [pc, #24]	; 800016c <__do_global_dtors_aux+0x3c>
 8000150:	11a00000 	movne	r0, r0
 8000154:	e3a03001 	mov	r3, #1
 8000158:	e5c43000 	strb	r3, [r4]
 800015c:	e8bd4010 	pop	{r4, lr}
 8000160:	e12fff1e 	bx	lr
 8000164:	20000440 	andcs	r0, r0, r0, asr #8
 8000168:	00000000 	andeq	r0, r0, r0
 800016c:	080008a4 	stmdaeq	r0, {r2, r5, r7, fp}

08000170 <frame_dummy>:
 8000170:	e59f301c 	ldr	r3, [pc, #28]	; 8000194 <frame_dummy+0x24>
 8000174:	e3530000 	cmp	r3, #0
 8000178:	012fff1e 	bxeq	lr
 800017c:	e92d4010 	push	{r4, lr}
 8000180:	e59f1010 	ldr	r1, [pc, #16]	; 8000198 <frame_dummy+0x28>
 8000184:	e59f0010 	ldr	r0, [pc, #16]	; 800019c <frame_dummy+0x2c>
 8000188:	e1a00000 	nop			; (mov r0, r0)
 800018c:	e8bd4010 	pop	{r4, lr}
 8000190:	e12fff1e 	bx	lr
 8000194:	00000000 	andeq	r0, r0, r0
 8000198:	20000444 	andcs	r0, r0, r4, asr #8
 800019c:	080008a4 	stmdaeq	r0, {r2, r5, r7, fp}

080001a0 <_stack_init>:
 80001a0:	e10f4000 	mrs	r4, CPSR
 80001a4:	e314000f 	tst	r4, #15
 80001a8:	0a00001c 	beq	8000220 <_stack_init+0x80>
 80001ac:	e1a0300d 	mov	r3, sp
 80001b0:	e3a010d1 	mov	r1, #209	; 0xd1
 80001b4:	e121f001 	msr	CPSR_c, r1
 80001b8:	e1a0d003 	mov	sp, r3
 80001bc:	e24daa01 	sub	sl, sp, #4096	; 0x1000
 80001c0:	e1a0300a 	mov	r3, sl
 80001c4:	e3a010d7 	mov	r1, #215	; 0xd7
 80001c8:	e121f001 	msr	CPSR_c, r1
 80001cc:	e1a0d003 	mov	sp, r3
 80001d0:	e2433a01 	sub	r3, r3, #4096	; 0x1000
 80001d4:	e3a010db 	mov	r1, #219	; 0xdb
 80001d8:	e121f001 	msr	CPSR_c, r1
 80001dc:	e1a0d003 	mov	sp, r3
 80001e0:	e2433a01 	sub	r3, r3, #4096	; 0x1000
 80001e4:	e3a010d2 	mov	r1, #210	; 0xd2
 80001e8:	e121f001 	msr	CPSR_c, r1
 80001ec:	e1a0d003 	mov	sp, r3
 80001f0:	e2433a02 	sub	r3, r3, #8192	; 0x2000
 80001f4:	e3a010d3 	mov	r1, #211	; 0xd3
 80001f8:	e121f001 	msr	CPSR_c, r1
 80001fc:	e1a0d003 	mov	sp, r3
 8000200:	e2433902 	sub	r3, r3, #32768	; 0x8000
 8000204:	e3c330ff 	bic	r3, r3, #255	; 0xff
 8000208:	e3c33cff 	bic	r3, r3, #65280	; 0xff00
 800020c:	e3a010df 	mov	r1, #223	; 0xdf
 8000210:	e121f001 	msr	CPSR_c, r1
 8000214:	e1a0d003 	mov	sp, r3
 8000218:	e38440c0 	orr	r4, r4, #192	; 0xc0
 800021c:	e121f004 	msr	CPSR_c, r4
 8000220:	e243a801 	sub	sl, r3, #65536	; 0x10000
 8000224:	e12fff1e 	bx	lr

08000228 <_mainCRTStartup>:
 8000228:	e59f3094 	ldr	r3, [pc, #148]	; 80002c4 <_mainCRTStartup+0x9c>
 800022c:	e3530000 	cmp	r3, #0
 8000230:	059f3080 	ldreq	r3, [pc, #128]	; 80002b8 <_mainCRTStartup+0x90>
 8000234:	e1a0d003 	mov	sp, r3
 8000238:	ebffffd8 	bl	80001a0 <_stack_init>
 800023c:	e3b01000 	movs	r1, #0
 8000240:	e1a0b001 	mov	fp, r1
 8000244:	e1a07001 	mov	r7, r1
 8000248:	e59f0078 	ldr	r0, [pc, #120]	; 80002c8 <_mainCRTStartup+0xa0>
 800024c:	e59f2078 	ldr	r2, [pc, #120]	; 80002cc <_mainCRTStartup+0xa4>
 8000250:	e0522000 	subs	r2, r2, r0
 8000254:	eb000085 	bl	8000470 <memset>
 8000258:	e59f305c 	ldr	r3, [pc, #92]	; 80002bc <_mainCRTStartup+0x94>
 800025c:	e3530000 	cmp	r3, #0
 8000260:	0a000001 	beq	800026c <_mainCRTStartup+0x44>
 8000264:	e1a0e00f 	mov	lr, pc
 8000268:	e1a0f003 	mov	pc, r3
 800026c:	e59f304c 	ldr	r3, [pc, #76]	; 80002c0 <_mainCRTStartup+0x98>
 8000270:	e3530000 	cmp	r3, #0
 8000274:	0a000001 	beq	8000280 <_mainCRTStartup+0x58>
 8000278:	e1a0e00f 	mov	lr, pc
 800027c:	e1a0f003 	mov	pc, r3
 8000280:	e3b00000 	movs	r0, #0
 8000284:	e3b01000 	movs	r1, #0
 8000288:	e1b04000 	movs	r4, r0
 800028c:	e1b05001 	movs	r5, r1
 8000290:	e59f0038 	ldr	r0, [pc, #56]	; 80002d0 <_mainCRTStartup+0xa8>
 8000294:	e3500000 	cmp	r0, #0
 8000298:	0a000001 	beq	80002a4 <_mainCRTStartup+0x7c>
 800029c:	e59f0030 	ldr	r0, [pc, #48]	; 80002d4 <_mainCRTStartup+0xac>
 80002a0:	eb000111 	bl	80006ec <atexit>
 80002a4:	eb00004f 	bl	80003e8 <__libc_init_array>
 80002a8:	e1b00004 	movs	r0, r4
 80002ac:	e1b01005 	movs	r1, r5
 80002b0:	fa00000b 	blx	80002e4 <main>
 80002b4:	eb00003e 	bl	80003b4 <exit>
 80002b8:	00080000 	andeq	r0, r8, r0
	...
 80002c8:	20000440 	andcs	r0, r0, r0, asr #8
 80002cc:	2000045c 	andcs	r0, r0, ip, asr r4
 80002d0:	080006ec 	stmdaeq	r0, {r2, r3, r5, r6, r7, r9, sl}
 80002d4:	0800070c 	stmdaeq	r0, {r2, r3, r8, r9, sl}

080002d8 <SystemInit>:
 80002d8:	b580      	push	{r7, lr}
 80002da:	af00      	add	r7, sp, #0
 80002dc:	f000 f802 	bl	80002e4 <main>
 80002e0:	bf00      	nop
 80002e2:	bd80      	pop	{r7, pc}

080002e4 <main>:
 80002e4:	b480      	push	{r7}
 80002e6:	b083      	sub	sp, #12
 80002e8:	af00      	add	r7, sp, #0
 80002ea:	4b23      	ldr	r3, [pc, #140]	; (8000378 <main+0x94>)
 80002ec:	699b      	ldr	r3, [r3, #24]
 80002ee:	4a22      	ldr	r2, [pc, #136]	; (8000378 <main+0x94>)
 80002f0:	f043 0310 	orr.w	r3, r3, #16
 80002f4:	6193      	str	r3, [r2, #24]
 80002f6:	4b21      	ldr	r3, [pc, #132]	; (800037c <main+0x98>)
 80002f8:	685b      	ldr	r3, [r3, #4]
 80002fa:	4a20      	ldr	r2, [pc, #128]	; (800037c <main+0x98>)
 80002fc:	f443 1300 	orr.w	r3, r3, #2097152	; 0x200000
 8000300:	6053      	str	r3, [r2, #4]
 8000302:	4b1d      	ldr	r3, [pc, #116]	; (8000378 <main+0x94>)
 8000304:	681b      	ldr	r3, [r3, #0]
 8000306:	4a1c      	ldr	r2, [pc, #112]	; (8000378 <main+0x94>)
 8000308:	f043 7380 	orr.w	r3, r3, #16777216	; 0x1000000
 800030c:	6013      	str	r3, [r2, #0]
 800030e:	bf00      	nop
 8000310:	4b19      	ldr	r3, [pc, #100]	; (8000378 <main+0x94>)
 8000312:	681b      	ldr	r3, [r3, #0]
 8000314:	f003 7300 	and.w	r3, r3, #33554432	; 0x2000000
 8000318:	2b00      	cmp	r3, #0
 800031a:	d0f9      	beq.n	8000310 <main+0x2c>
 800031c:	4b16      	ldr	r3, [pc, #88]	; (8000378 <main+0x94>)
 800031e:	685b      	ldr	r3, [r3, #4]
 8000320:	4a15      	ldr	r2, [pc, #84]	; (8000378 <main+0x94>)
 8000322:	f043 0302 	orr.w	r3, r3, #2
 8000326:	6053      	str	r3, [r2, #4]
 8000328:	bf00      	nop
 800032a:	4b13      	ldr	r3, [pc, #76]	; (8000378 <main+0x94>)
 800032c:	685b      	ldr	r3, [r3, #4]
 800032e:	f003 0308 	and.w	r3, r3, #8
 8000332:	2b00      	cmp	r3, #0
 8000334:	d0f9      	beq.n	800032a <main+0x46>
 8000336:	4b11      	ldr	r3, [pc, #68]	; (800037c <main+0x98>)
 8000338:	691b      	ldr	r3, [r3, #16]
 800033a:	4a10      	ldr	r2, [pc, #64]	; (800037c <main+0x98>)
 800033c:	f043 5300 	orr.w	r3, r3, #536870912	; 0x20000000
 8000340:	6113      	str	r3, [r2, #16]
 8000342:	2300      	movs	r3, #0
 8000344:	607b      	str	r3, [r7, #4]
 8000346:	e002      	b.n	800034e <main+0x6a>
 8000348:	687b      	ldr	r3, [r7, #4]
 800034a:	3301      	adds	r3, #1
 800034c:	607b      	str	r3, [r7, #4]
 800034e:	687b      	ldr	r3, [r7, #4]
 8000350:	4a0b      	ldr	r2, [pc, #44]	; (8000380 <main+0x9c>)
 8000352:	4293      	cmp	r3, r2
 8000354:	d9f8      	bls.n	8000348 <main+0x64>
 8000356:	4b09      	ldr	r3, [pc, #36]	; (800037c <main+0x98>)
 8000358:	691b      	ldr	r3, [r3, #16]
 800035a:	4a08      	ldr	r2, [pc, #32]	; (800037c <main+0x98>)
 800035c:	f443 5300 	orr.w	r3, r3, #8192	; 0x2000
 8000360:	6113      	str	r3, [r2, #16]
 8000362:	2300      	movs	r3, #0
 8000364:	603b      	str	r3, [r7, #0]
 8000366:	e002      	b.n	800036e <main+0x8a>
 8000368:	683b      	ldr	r3, [r7, #0]
 800036a:	3301      	adds	r3, #1
 800036c:	603b      	str	r3, [r7, #0]
 800036e:	683b      	ldr	r3, [r7, #0]
 8000370:	4a03      	ldr	r2, [pc, #12]	; (8000380 <main+0x9c>)
 8000372:	4293      	cmp	r3, r2
 8000374:	d9f8      	bls.n	8000368 <main+0x84>
 8000376:	e7de      	b.n	8000336 <main+0x52>
 8000378:	40021000 	andmi	r1, r2, r0
 800037c:	40011000 	andmi	r1, r1, r0
 8000380:	0001869f 	muleq	r1, pc, r6	; <UNPREDICTABLE>

Disassembly of section .init:

08000384 <_init>:
 8000384:	e1a0c00d 	mov	ip, sp
 8000388:	e92ddff8 	push	{r3, r4, r5, r6, r7, r8, r9, sl, fp, ip, lr, pc}
 800038c:	e24cb004 	sub	fp, ip, #4
 8000390:	e24bd028 	sub	sp, fp, #40	; 0x28
 8000394:	e89d6ff0 	ldm	sp, {r4, r5, r6, r7, r8, r9, sl, fp, sp, lr}
 8000398:	e12fff1e 	bx	lr

Disassembly of section .fini:

0800039c <_fini>:
 800039c:	e1a0c00d 	mov	ip, sp
 80003a0:	e92ddff8 	push	{r3, r4, r5, r6, r7, r8, r9, sl, fp, ip, lr, pc}
 80003a4:	e24cb004 	sub	fp, ip, #4
 80003a8:	e24bd028 	sub	sp, fp, #40	; 0x28
 80003ac:	e89d6ff0 	ldm	sp, {r4, r5, r6, r7, r8, r9, sl, fp, sp, lr}
 80003b0:	e12fff1e 	bx	lr

Disassembly of section .text.exit:

080003b4 <exit>:
 80003b4:	e92d4010 	push	{r4, lr}
 80003b8:	e3a01000 	mov	r1, #0
 80003bc:	e1a04000 	mov	r4, r0
 80003c0:	eb00007b 	bl	80005b4 <__call_exitprocs>
 80003c4:	e59f3018 	ldr	r3, [pc, #24]	; 80003e4 <exit+0x30>
 80003c8:	e5930000 	ldr	r0, [r3]
 80003cc:	e590303c 	ldr	r3, [r0, #60]	; 0x3c
 80003d0:	e3530000 	cmp	r3, #0
 80003d4:	11a0e00f 	movne	lr, pc
 80003d8:	112fff13 	bxne	r3
 80003dc:	e1a00004 	mov	r0, r4
 80003e0:	eb00011c 	bl	8000858 <_exit>
 80003e4:	080008b0 	stmdaeq	r0, {r4, r5, r7, fp}

Disassembly of section .text.__libc_init_array:

080003e8 <__libc_init_array>:
 80003e8:	e92d4070 	push	{r4, r5, r6, lr}
 80003ec:	e59f606c 	ldr	r6, [pc, #108]	; 8000460 <__libc_init_array+0x78>
 80003f0:	e59f506c 	ldr	r5, [pc, #108]	; 8000464 <__libc_init_array+0x7c>
 80003f4:	e0466005 	sub	r6, r6, r5
 80003f8:	e1b06146 	asrs	r6, r6, #2
 80003fc:	0a000007 	beq	8000420 <__libc_init_array+0x38>
 8000400:	e3a04000 	mov	r4, #0
 8000404:	e2455004 	sub	r5, r5, #4
 8000408:	e5b53004 	ldr	r3, [r5, #4]!
 800040c:	e2844001 	add	r4, r4, #1
 8000410:	e1a0e00f 	mov	lr, pc
 8000414:	e12fff13 	bx	r3
 8000418:	e1560004 	cmp	r6, r4
 800041c:	1afffff9 	bne	8000408 <__libc_init_array+0x20>
 8000420:	e59f6040 	ldr	r6, [pc, #64]	; 8000468 <__libc_init_array+0x80>
 8000424:	e59f5040 	ldr	r5, [pc, #64]	; 800046c <__libc_init_array+0x84>
 8000428:	e0466005 	sub	r6, r6, r5
 800042c:	ebffffd4 	bl	8000384 <_init>
 8000430:	e1b06146 	asrs	r6, r6, #2
 8000434:	0a000007 	beq	8000458 <__libc_init_array+0x70>
 8000438:	e3a04000 	mov	r4, #0
 800043c:	e2455004 	sub	r5, r5, #4
 8000440:	e5b53004 	ldr	r3, [r5, #4]!
 8000444:	e2844001 	add	r4, r4, #1
 8000448:	e1a0e00f 	mov	lr, pc
 800044c:	e12fff13 	bx	r3
 8000450:	e1560004 	cmp	r6, r4
 8000454:	1afffff9 	bne	8000440 <__libc_init_array+0x58>
 8000458:	e8bd4070 	pop	{r4, r5, r6, lr}
 800045c:	e12fff1e 	bx	lr
	...

Disassembly of section .text.memset:

08000470 <memset>:
 8000470:	e3100003 	tst	r0, #3
 8000474:	0a000040 	beq	800057c <memset+0x10c>
 8000478:	e3520000 	cmp	r2, #0
 800047c:	e2422001 	sub	r2, r2, #1
 8000480:	012fff1e 	bxeq	lr
 8000484:	e1a03000 	mov	r3, r0
 8000488:	e201c0ff 	and	ip, r1, #255	; 0xff
 800048c:	ea000002 	b	800049c <memset+0x2c>
 8000490:	e2422001 	sub	r2, r2, #1
 8000494:	e3720001 	cmn	r2, #1
 8000498:	012fff1e 	bxeq	lr
 800049c:	e4c3c001 	strb	ip, [r3], #1
 80004a0:	e3130003 	tst	r3, #3
 80004a4:	1afffff9 	bne	8000490 <memset+0x20>
 80004a8:	e3520003 	cmp	r2, #3
 80004ac:	9a000028 	bls	8000554 <memset+0xe4>
 80004b0:	e92d4030 	push	{r4, r5, lr}
 80004b4:	e201e0ff 	and	lr, r1, #255	; 0xff
 80004b8:	e18ee40e 	orr	lr, lr, lr, lsl #8
 80004bc:	e352000f 	cmp	r2, #15
 80004c0:	e18ee80e 	orr	lr, lr, lr, lsl #16
 80004c4:	9a00002e 	bls	8000584 <memset+0x114>
 80004c8:	e242c010 	sub	ip, r2, #16
 80004cc:	e3cc400f 	bic	r4, ip, #15
 80004d0:	e2835020 	add	r5, r3, #32
 80004d4:	e0855004 	add	r5, r5, r4
 80004d8:	e1a0422c 	lsr	r4, ip, #4
 80004dc:	e283c010 	add	ip, r3, #16
 80004e0:	e50ce010 	str	lr, [ip, #-16]
 80004e4:	e50ce00c 	str	lr, [ip, #-12]
 80004e8:	e50ce008 	str	lr, [ip, #-8]
 80004ec:	e50ce004 	str	lr, [ip, #-4]
 80004f0:	e28cc010 	add	ip, ip, #16
 80004f4:	e15c0005 	cmp	ip, r5
 80004f8:	1afffff8 	bne	80004e0 <memset+0x70>
 80004fc:	e284c001 	add	ip, r4, #1
 8000500:	e312000c 	tst	r2, #12
 8000504:	e083c20c 	add	ip, r3, ip, lsl #4
 8000508:	e202200f 	and	r2, r2, #15
 800050c:	0a000018 	beq	8000574 <memset+0x104>
 8000510:	e2423004 	sub	r3, r2, #4
 8000514:	e3c33003 	bic	r3, r3, #3
 8000518:	e2833004 	add	r3, r3, #4
 800051c:	e08c3003 	add	r3, ip, r3
 8000520:	e48ce004 	str	lr, [ip], #4
 8000524:	e153000c 	cmp	r3, ip
 8000528:	1afffffc 	bne	8000520 <memset+0xb0>
 800052c:	e2022003 	and	r2, r2, #3
 8000530:	e3520000 	cmp	r2, #0
 8000534:	0a000004 	beq	800054c <memset+0xdc>
 8000538:	e20110ff 	and	r1, r1, #255	; 0xff
 800053c:	e0832002 	add	r2, r3, r2
 8000540:	e4c31001 	strb	r1, [r3], #1
 8000544:	e1520003 	cmp	r2, r3
 8000548:	1afffffc 	bne	8000540 <memset+0xd0>
 800054c:	e8bd4030 	pop	{r4, r5, lr}
 8000550:	e12fff1e 	bx	lr
 8000554:	e3520000 	cmp	r2, #0
 8000558:	012fff1e 	bxeq	lr
 800055c:	e20110ff 	and	r1, r1, #255	; 0xff
 8000560:	e0832002 	add	r2, r3, r2
 8000564:	e4c31001 	strb	r1, [r3], #1
 8000568:	e1520003 	cmp	r2, r3
 800056c:	1afffffc 	bne	8000564 <memset+0xf4>
 8000570:	e12fff1e 	bx	lr
 8000574:	e1a0300c 	mov	r3, ip
 8000578:	eaffffec 	b	8000530 <memset+0xc0>
 800057c:	e1a03000 	mov	r3, r0
 8000580:	eaffffc8 	b	80004a8 <memset+0x38>
 8000584:	e1a0c003 	mov	ip, r3
 8000588:	eaffffe0 	b	8000510 <memset+0xa0>

Disassembly of section .text.startup.register_fini:

0800058c <register_fini>:
 800058c:	e59f3018 	ldr	r3, [pc, #24]	; 80005ac <register_fini+0x20>
 8000590:	e3530000 	cmp	r3, #0
 8000594:	012fff1e 	bxeq	lr
 8000598:	e92d4010 	push	{r4, lr}
 800059c:	e59f000c 	ldr	r0, [pc, #12]	; 80005b0 <register_fini+0x24>
 80005a0:	eb000051 	bl	80006ec <atexit>
 80005a4:	e8bd4010 	pop	{r4, lr}
 80005a8:	e12fff1e 	bx	lr
 80005ac:	00000000 	andeq	r0, r0, r0
 80005b0:	0800070c 	stmdaeq	r0, {r2, r3, r8, r9, sl}

Disassembly of section .text.__call_exitprocs:

080005b4 <__call_exitprocs>:
 80005b4:	e92d4ff0 	push	{r4, r5, r6, r7, r8, r9, sl, fp, lr}
 80005b8:	e1a0b000 	mov	fp, r0
 80005bc:	e59f3120 	ldr	r3, [pc, #288]	; 80006e4 <__call_exitprocs+0x130>
 80005c0:	e24dd00c 	sub	sp, sp, #12
 80005c4:	e5930000 	ldr	r0, [r3]
 80005c8:	e1a07001 	mov	r7, r1
 80005cc:	e58db004 	str	fp, [sp, #4]
 80005d0:	eb000063 	bl	8000764 <__retarget_lock_acquire_recursive>
 80005d4:	e59f310c 	ldr	r3, [pc, #268]	; 80006e8 <__call_exitprocs+0x134>
 80005d8:	e5938000 	ldr	r8, [r3]
 80005dc:	e5986148 	ldr	r6, [r8, #328]	; 0x148
 80005e0:	e3560000 	cmp	r6, #0
 80005e4:	0a000028 	beq	800068c <__call_exitprocs+0xd8>
 80005e8:	e3a09001 	mov	r9, #1
 80005ec:	e3a0a000 	mov	sl, #0
 80005f0:	e5964004 	ldr	r4, [r6, #4]
 80005f4:	e2545001 	subs	r5, r4, #1
 80005f8:	4a000023 	bmi	800068c <__call_exitprocs+0xd8>
 80005fc:	e2844001 	add	r4, r4, #1
 8000600:	e0864104 	add	r4, r6, r4, lsl #2
 8000604:	ea000003 	b	8000618 <__call_exitprocs+0x64>
 8000608:	e2455001 	sub	r5, r5, #1
 800060c:	e3750001 	cmn	r5, #1
 8000610:	e2444004 	sub	r4, r4, #4
 8000614:	0a00001c 	beq	800068c <__call_exitprocs+0xd8>
 8000618:	e3570000 	cmp	r7, #0
 800061c:	0a000002 	beq	800062c <__call_exitprocs+0x78>
 8000620:	e5943100 	ldr	r3, [r4, #256]	; 0x100
 8000624:	e1530007 	cmp	r3, r7
 8000628:	1afffff6 	bne	8000608 <__call_exitprocs+0x54>
 800062c:	e5963004 	ldr	r3, [r6, #4]
 8000630:	e5942000 	ldr	r2, [r4]
 8000634:	e2433001 	sub	r3, r3, #1
 8000638:	e1530005 	cmp	r3, r5
 800063c:	05865004 	streq	r5, [r6, #4]
 8000640:	1584a000 	strne	sl, [r4]
 8000644:	e3520000 	cmp	r2, #0
 8000648:	0affffee 	beq	8000608 <__call_exitprocs+0x54>
 800064c:	e5963188 	ldr	r3, [r6, #392]	; 0x188
 8000650:	e1a01519 	lsl	r1, r9, r5
 8000654:	e1110003 	tst	r1, r3
 8000658:	e596b004 	ldr	fp, [r6, #4]
 800065c:	1a000010 	bne	80006a4 <__call_exitprocs+0xf0>
 8000660:	e1a0e00f 	mov	lr, pc
 8000664:	e12fff12 	bx	r2
 8000668:	e5962004 	ldr	r2, [r6, #4]
 800066c:	e152000b 	cmp	r2, fp
 8000670:	1a000015 	bne	80006cc <__call_exitprocs+0x118>
 8000674:	e5983148 	ldr	r3, [r8, #328]	; 0x148
 8000678:	e1530006 	cmp	r3, r6
 800067c:	0affffe1 	beq	8000608 <__call_exitprocs+0x54>
 8000680:	e1a06003 	mov	r6, r3
 8000684:	e3560000 	cmp	r6, #0
 8000688:	1affffd8 	bne	80005f0 <__call_exitprocs+0x3c>
 800068c:	e59f3050 	ldr	r3, [pc, #80]	; 80006e4 <__call_exitprocs+0x130>
 8000690:	e5930000 	ldr	r0, [r3]
 8000694:	eb000038 	bl	800077c <__retarget_lock_release_recursive>
 8000698:	e28dd00c 	add	sp, sp, #12
 800069c:	e8bd4ff0 	pop	{r4, r5, r6, r7, r8, r9, sl, fp, lr}
 80006a0:	e12fff1e 	bx	lr
 80006a4:	e596018c 	ldr	r0, [r6, #396]	; 0x18c
 80006a8:	e1110000 	tst	r1, r0
 80006ac:	1a000008 	bne	80006d4 <__call_exitprocs+0x120>
 80006b0:	e59d0004 	ldr	r0, [sp, #4]
 80006b4:	e5941080 	ldr	r1, [r4, #128]	; 0x80
 80006b8:	e1a0e00f 	mov	lr, pc
 80006bc:	e12fff12 	bx	r2
 80006c0:	e5962004 	ldr	r2, [r6, #4]
 80006c4:	e152000b 	cmp	r2, fp
 80006c8:	0affffe9 	beq	8000674 <__call_exitprocs+0xc0>
 80006cc:	e5986148 	ldr	r6, [r8, #328]	; 0x148
 80006d0:	eaffffeb 	b	8000684 <__call_exitprocs+0xd0>
 80006d4:	e5940080 	ldr	r0, [r4, #128]	; 0x80
 80006d8:	e1a0e00f 	mov	lr, pc
 80006dc:	e12fff12 	bx	r2
 80006e0:	eaffffe0 	b	8000668 <__call_exitprocs+0xb4>
 80006e4:	2000043c 	andcs	r0, r0, ip, lsr r4
 80006e8:	080008b0 	stmdaeq	r0, {r4, r5, r7, fp}

Disassembly of section .text.atexit:

080006ec <atexit>:
 80006ec:	e3a03000 	mov	r3, #0
 80006f0:	e92d4010 	push	{r4, lr}
 80006f4:	e1a01000 	mov	r1, r0
 80006f8:	e1a02003 	mov	r2, r3
 80006fc:	e1a00003 	mov	r0, r3
 8000700:	eb00001e 	bl	8000780 <__register_exitproc>
 8000704:	e8bd4010 	pop	{r4, lr}
 8000708:	e12fff1e 	bx	lr

Disassembly of section .text.__libc_fini_array:

0800070c <__libc_fini_array>:
 800070c:	e92d4070 	push	{r4, r5, r6, lr}
 8000710:	e59f5030 	ldr	r5, [pc, #48]	; 8000748 <__libc_fini_array+0x3c>
 8000714:	e59f4030 	ldr	r4, [pc, #48]	; 800074c <__libc_fini_array+0x40>
 8000718:	e0454004 	sub	r4, r5, r4
 800071c:	e1b04144 	asrs	r4, r4, #2
 8000720:	0a000005 	beq	800073c <__libc_fini_array+0x30>
 8000724:	e5353004 	ldr	r3, [r5, #-4]!
 8000728:	e2444001 	sub	r4, r4, #1
 800072c:	e1a0e00f 	mov	lr, pc
 8000730:	e12fff13 	bx	r3
 8000734:	e3540000 	cmp	r4, #0
 8000738:	1afffff9 	bne	8000724 <__libc_fini_array+0x18>
 800073c:	ebffff16 	bl	800039c <_fini>
 8000740:	e8bd4070 	pop	{r4, r5, r6, lr}
 8000744:	e12fff1e 	bx	lr
	...

Disassembly of section .text.__retarget_lock_init:

08000750 <__retarget_lock_init>:
 8000750:	e12fff1e 	bx	lr

Disassembly of section .text.__retarget_lock_init_recursive:

08000754 <__retarget_lock_init_recursive>:
 8000754:	e12fff1e 	bx	lr

Disassembly of section .text.__retarget_lock_close:

08000758 <__retarget_lock_close>:
 8000758:	e12fff1e 	bx	lr

Disassembly of section .text.__retarget_lock_close_recursive:

0800075c <__retarget_lock_close_recursive>:
 800075c:	e12fff1e 	bx	lr

Disassembly of section .text.__retarget_lock_acquire:

08000760 <__retarget_lock_acquire>:
 8000760:	e12fff1e 	bx	lr

Disassembly of section .text.__retarget_lock_acquire_recursive:

08000764 <__retarget_lock_acquire_recursive>:
 8000764:	e12fff1e 	bx	lr

Disassembly of section .text.__retarget_lock_try_acquire:

08000768 <__retarget_lock_try_acquire>:
 8000768:	e3a00001 	mov	r0, #1
 800076c:	e12fff1e 	bx	lr

Disassembly of section .text.__retarget_lock_try_acquire_recursive:

08000770 <__retarget_lock_try_acquire_recursive>:
 8000770:	e3a00001 	mov	r0, #1
 8000774:	e12fff1e 	bx	lr

Disassembly of section .text.__retarget_lock_release:

08000778 <__retarget_lock_release>:
 8000778:	e12fff1e 	bx	lr

Disassembly of section .text.__retarget_lock_release_recursive:

0800077c <__retarget_lock_release_recursive>:
 800077c:	e12fff1e 	bx	lr

Disassembly of section .text.__register_exitproc:

08000780 <__register_exitproc>:
 8000780:	e92d41f0 	push	{r4, r5, r6, r7, r8, lr}
 8000784:	e59f80a8 	ldr	r8, [pc, #168]	; 8000834 <__register_exitproc+0xb4>
 8000788:	e1a04000 	mov	r4, r0
 800078c:	e5980000 	ldr	r0, [r8]
 8000790:	e1a06003 	mov	r6, r3
 8000794:	e1a05001 	mov	r5, r1
 8000798:	e1a07002 	mov	r7, r2
 800079c:	ebfffff0 	bl	8000764 <__retarget_lock_acquire_recursive>
 80007a0:	e59f3090 	ldr	r3, [pc, #144]	; 8000838 <__register_exitproc+0xb8>
 80007a4:	e5933000 	ldr	r3, [r3]
 80007a8:	e593c148 	ldr	ip, [r3, #328]	; 0x148
 80007ac:	e35c0000 	cmp	ip, #0
 80007b0:	0283cf53 	addeq	ip, r3, #332	; 0x14c
 80007b4:	e59ce004 	ldr	lr, [ip, #4]
 80007b8:	0583c148 	streq	ip, [r3, #328]	; 0x148
 80007bc:	e35e001f 	cmp	lr, #31
 80007c0:	ca000017 	bgt	8000824 <__register_exitproc+0xa4>
 80007c4:	e3540000 	cmp	r4, #0
 80007c8:	1a000008 	bne	80007f0 <__register_exitproc+0x70>
 80007cc:	e28e3001 	add	r3, lr, #1
 80007d0:	e28ee002 	add	lr, lr, #2
 80007d4:	e58c3004 	str	r3, [ip, #4]
 80007d8:	e5980000 	ldr	r0, [r8]
 80007dc:	e78c510e 	str	r5, [ip, lr, lsl #2]
 80007e0:	ebffffe5 	bl	800077c <__retarget_lock_release_recursive>
 80007e4:	e3a00000 	mov	r0, #0
 80007e8:	e8bd41f0 	pop	{r4, r5, r6, r7, r8, lr}
 80007ec:	e12fff1e 	bx	lr
 80007f0:	e3a03001 	mov	r3, #1
 80007f4:	e08c110e 	add	r1, ip, lr, lsl #2
 80007f8:	e5817088 	str	r7, [r1, #136]	; 0x88
 80007fc:	e59c2188 	ldr	r2, [ip, #392]	; 0x188
 8000800:	e1a03e13 	lsl	r3, r3, lr
 8000804:	e1822003 	orr	r2, r2, r3
 8000808:	e58c2188 	str	r2, [ip, #392]	; 0x188
 800080c:	e5816108 	str	r6, [r1, #264]	; 0x108
 8000810:	e3540002 	cmp	r4, #2
 8000814:	059c218c 	ldreq	r2, [ip, #396]	; 0x18c
 8000818:	01823003 	orreq	r3, r2, r3
 800081c:	058c318c 	streq	r3, [ip, #396]	; 0x18c
 8000820:	eaffffe9 	b	80007cc <__register_exitproc+0x4c>
 8000824:	e5980000 	ldr	r0, [r8]
 8000828:	ebffffd3 	bl	800077c <__retarget_lock_release_recursive>
 800082c:	e3e00000 	mvn	r0, #0
 8000830:	eaffffec 	b	80007e8 <__register_exitproc+0x68>
 8000834:	2000043c 	andcs	r0, r0, ip, lsr r4
 8000838:	080008b0 	stmdaeq	r0, {r4, r5, r7, fp}

Disassembly of section .text.Reset_Handler:

0800083c <Reset_Handler>:
 800083c:	4803      	ldr	r0, [pc, #12]	; (800084c <Reset_Handler+0x10>)
 800083e:	4685      	mov	sp, r0
 8000840:	b672      	cpsid	i
 8000842:	4803      	ldr	r0, [pc, #12]	; (8000850 <Reset_Handler+0x14>)
 8000844:	4780      	blx	r0
 8000846:	f7ff bd4d 	b.w	80002e4 <main>
 800084a:	50000000 	andpl	r0, r0, r0
 800084e:	02d92000 	sbcseq	r2, r9, #0
 8000852:	Address 0x08000852 is out of bounds.


Disassembly of section .text.Default_Handler:

08000854 <ADC1_2_IRQHandler>:
 8000854:	e7fe      	b.n	8000854 <ADC1_2_IRQHandler>

Disassembly of section .text._exit:

08000858 <_exit>:
 8000858:	eafffffe 	b	8000858 <_exit>
