
nucleo-H743.elf:     file format elf32-littlearm


Disassembly of section .text:

08000000 <__do_global_dtors_aux>:
 8000000:	e92d4010 	push	{r4, lr}
 8000004:	e59f4028 	ldr	r4, [pc, #40]	; 8000034 <__do_global_dtors_aux+0x34>
 8000008:	e5d43000 	ldrb	r3, [r4]
 800000c:	e3530000 	cmp	r3, #0
 8000010:	1a000005 	bne	800002c <__do_global_dtors_aux+0x2c>
 8000014:	e59f301c 	ldr	r3, [pc, #28]	; 8000038 <__do_global_dtors_aux+0x38>
 8000018:	e3530000 	cmp	r3, #0
 800001c:	159f0018 	ldrne	r0, [pc, #24]	; 800003c <__do_global_dtors_aux+0x3c>
 8000020:	11a00000 	movne	r0, r0
 8000024:	e3a03001 	mov	r3, #1
 8000028:	e5c43000 	strb	r3, [r4]
 800002c:	e8bd4010 	pop	{r4, lr}
 8000030:	e12fff1e 	bx	lr
 8000034:	24000434 	strcs	r0, [r0], #-1076	; 0xfffffbcc
 8000038:	00000000 	andeq	r0, r0, r0
 800003c:	080007f4 	stmdaeq	r0, {r2, r4, r5, r6, r7, r8, r9, sl}

08000040 <frame_dummy>:
 8000040:	e59f301c 	ldr	r3, [pc, #28]	; 8000064 <frame_dummy+0x24>
 8000044:	e3530000 	cmp	r3, #0
 8000048:	012fff1e 	bxeq	lr
 800004c:	e92d4010 	push	{r4, lr}
 8000050:	e59f1010 	ldr	r1, [pc, #16]	; 8000068 <frame_dummy+0x28>
 8000054:	e59f0010 	ldr	r0, [pc, #16]	; 800006c <frame_dummy+0x2c>
 8000058:	e1a00000 	nop			; (mov r0, r0)
 800005c:	e8bd4010 	pop	{r4, lr}
 8000060:	e12fff1e 	bx	lr
 8000064:	00000000 	andeq	r0, r0, r0
 8000068:	24000438 	strcs	r0, [r0], #-1080	; 0xfffffbc8
 800006c:	080007f4 	stmdaeq	r0, {r2, r4, r5, r6, r7, r8, r9, sl}

08000070 <_stack_init>:
 8000070:	e10f4000 	mrs	r4, CPSR
 8000074:	e314000f 	tst	r4, #15
 8000078:	0a00001c 	beq	80000f0 <_stack_init+0x80>
 800007c:	e1a0300d 	mov	r3, sp
 8000080:	e3a010d1 	mov	r1, #209	; 0xd1
 8000084:	e121f001 	msr	CPSR_c, r1
 8000088:	e1a0d003 	mov	sp, r3
 800008c:	e24daa01 	sub	sl, sp, #4096	; 0x1000
 8000090:	e1a0300a 	mov	r3, sl
 8000094:	e3a010d7 	mov	r1, #215	; 0xd7
 8000098:	e121f001 	msr	CPSR_c, r1
 800009c:	e1a0d003 	mov	sp, r3
 80000a0:	e2433a01 	sub	r3, r3, #4096	; 0x1000
 80000a4:	e3a010db 	mov	r1, #219	; 0xdb
 80000a8:	e121f001 	msr	CPSR_c, r1
 80000ac:	e1a0d003 	mov	sp, r3
 80000b0:	e2433a01 	sub	r3, r3, #4096	; 0x1000
 80000b4:	e3a010d2 	mov	r1, #210	; 0xd2
 80000b8:	e121f001 	msr	CPSR_c, r1
 80000bc:	e1a0d003 	mov	sp, r3
 80000c0:	e2433a02 	sub	r3, r3, #8192	; 0x2000
 80000c4:	e3a010d3 	mov	r1, #211	; 0xd3
 80000c8:	e121f001 	msr	CPSR_c, r1
 80000cc:	e1a0d003 	mov	sp, r3
 80000d0:	e2433902 	sub	r3, r3, #32768	; 0x8000
 80000d4:	e3c330ff 	bic	r3, r3, #255	; 0xff
 80000d8:	e3c33cff 	bic	r3, r3, #65280	; 0xff00
 80000dc:	e3a010df 	mov	r1, #223	; 0xdf
 80000e0:	e121f001 	msr	CPSR_c, r1
 80000e4:	e1a0d003 	mov	sp, r3
 80000e8:	e38440c0 	orr	r4, r4, #192	; 0xc0
 80000ec:	e121f004 	msr	CPSR_c, r4
 80000f0:	e243a801 	sub	sl, r3, #65536	; 0x10000
 80000f4:	e12fff1e 	bx	lr

080000f8 <_mainCRTStartup>:
 80000f8:	e59f3094 	ldr	r3, [pc, #148]	; 8000194 <_mainCRTStartup+0x9c>
 80000fc:	e3530000 	cmp	r3, #0
 8000100:	059f3080 	ldreq	r3, [pc, #128]	; 8000188 <_mainCRTStartup+0x90>
 8000104:	e1a0d003 	mov	sp, r3
 8000108:	ebffffd8 	bl	8000070 <_stack_init>
 800010c:	e3b01000 	movs	r1, #0
 8000110:	e1a0b001 	mov	fp, r1
 8000114:	e1a07001 	mov	r7, r1
 8000118:	e59f0078 	ldr	r0, [pc, #120]	; 8000198 <_mainCRTStartup+0xa0>
 800011c:	e59f2078 	ldr	r2, [pc, #120]	; 800019c <_mainCRTStartup+0xa4>
 8000120:	e0522000 	subs	r2, r2, r0
 8000124:	eb0000be 	bl	8000424 <memset>
 8000128:	e59f305c 	ldr	r3, [pc, #92]	; 800018c <_mainCRTStartup+0x94>
 800012c:	e3530000 	cmp	r3, #0
 8000130:	0a000001 	beq	800013c <_mainCRTStartup+0x44>
 8000134:	e1a0e00f 	mov	lr, pc
 8000138:	e1a0f003 	mov	pc, r3
 800013c:	e59f304c 	ldr	r3, [pc, #76]	; 8000190 <_mainCRTStartup+0x98>
 8000140:	e3530000 	cmp	r3, #0
 8000144:	0a000001 	beq	8000150 <_mainCRTStartup+0x58>
 8000148:	e1a0e00f 	mov	lr, pc
 800014c:	e1a0f003 	mov	pc, r3
 8000150:	e3b00000 	movs	r0, #0
 8000154:	e3b01000 	movs	r1, #0
 8000158:	e1b04000 	movs	r4, r0
 800015c:	e1b05001 	movs	r5, r1
 8000160:	e59f0038 	ldr	r0, [pc, #56]	; 80001a0 <_mainCRTStartup+0xa8>
 8000164:	e3500000 	cmp	r0, #0
 8000168:	0a000001 	beq	8000174 <_mainCRTStartup+0x7c>
 800016c:	e59f0030 	ldr	r0, [pc, #48]	; 80001a4 <_mainCRTStartup+0xac>
 8000170:	eb00014a 	bl	80006a0 <atexit>
 8000174:	eb000088 	bl	800039c <__libc_init_array>
 8000178:	e1b00004 	movs	r0, r4
 800017c:	e1b01005 	movs	r1, r5
 8000180:	fa000008 	blx	80001a8 <main>
 8000184:	eb000077 	bl	8000368 <exit>
 8000188:	00080000 	andeq	r0, r8, r0
	...
 8000198:	24000434 	strcs	r0, [r0], #-1076	; 0xfffffbcc
 800019c:	24000474 	strcs	r0, [r0], #-1140	; 0xfffffb8c
 80001a0:	080006a0 	stmdaeq	r0, {r5, r7, r9, sl}
 80001a4:	080006c0 	stmdaeq	r0, {r6, r7, r9, sl}

080001a8 <main>:
 80001a8:	b480      	push	{r7}
 80001aa:	b085      	sub	sp, #20
 80001ac:	af00      	add	r7, sp, #0
 80001ae:	2301      	movs	r3, #1
 80001b0:	607b      	str	r3, [r7, #4]
 80001b2:	4b17      	ldr	r3, [pc, #92]	; (8000210 <main+0x68>)
 80001b4:	f8d3 30e0 	ldr.w	r3, [r3, #224]	; 0xe0
 80001b8:	4a15      	ldr	r2, [pc, #84]	; (8000210 <main+0x68>)
 80001ba:	f043 0302 	orr.w	r3, r3, #2
 80001be:	f8c2 30e0 	str.w	r3, [r2, #224]	; 0xe0
 80001c2:	4b14      	ldr	r3, [pc, #80]	; (8000214 <main+0x6c>)
 80001c4:	681a      	ldr	r2, [r3, #0]
 80001c6:	4913      	ldr	r1, [pc, #76]	; (8000214 <main+0x6c>)
 80001c8:	4b13      	ldr	r3, [pc, #76]	; (8000218 <main+0x70>)
 80001ca:	4013      	ands	r3, r2
 80001cc:	600b      	str	r3, [r1, #0]
 80001ce:	4b11      	ldr	r3, [pc, #68]	; (8000214 <main+0x6c>)
 80001d0:	699b      	ldr	r3, [r3, #24]
 80001d2:	4a10      	ldr	r2, [pc, #64]	; (8000214 <main+0x6c>)
 80001d4:	f443 33a0 	orr.w	r3, r3, #81920	; 0x14000
 80001d8:	6193      	str	r3, [r2, #24]
 80001da:	2300      	movs	r3, #0
 80001dc:	60fb      	str	r3, [r7, #12]
 80001de:	e002      	b.n	80001e6 <main+0x3e>
 80001e0:	68fb      	ldr	r3, [r7, #12]
 80001e2:	3301      	adds	r3, #1
 80001e4:	60fb      	str	r3, [r7, #12]
 80001e6:	68fb      	ldr	r3, [r7, #12]
 80001e8:	4a0c      	ldr	r2, [pc, #48]	; (800021c <main+0x74>)
 80001ea:	4293      	cmp	r3, r2
 80001ec:	ddf8      	ble.n	80001e0 <main+0x38>
 80001ee:	4b09      	ldr	r3, [pc, #36]	; (8000214 <main+0x6c>)
 80001f0:	699a      	ldr	r2, [r3, #24]
 80001f2:	4908      	ldr	r1, [pc, #32]	; (8000214 <main+0x6c>)
 80001f4:	4b0a      	ldr	r3, [pc, #40]	; (8000220 <main+0x78>)
 80001f6:	4313      	orrs	r3, r2
 80001f8:	618b      	str	r3, [r1, #24]
 80001fa:	2300      	movs	r3, #0
 80001fc:	60bb      	str	r3, [r7, #8]
 80001fe:	e002      	b.n	8000206 <main+0x5e>
 8000200:	68bb      	ldr	r3, [r7, #8]
 8000202:	3301      	adds	r3, #1
 8000204:	60bb      	str	r3, [r7, #8]
 8000206:	68bb      	ldr	r3, [r7, #8]
 8000208:	4a04      	ldr	r2, [pc, #16]	; (800021c <main+0x74>)
 800020a:	4293      	cmp	r3, r2
 800020c:	ddf8      	ble.n	8000200 <main+0x58>
 800020e:	e7de      	b.n	80001ce <main+0x26>
 8000210:	58024400 	stmdapl	r2, {sl, lr}
 8000214:	58020400 	stmdapl	r2, {sl}
 8000218:	dffffffd 	svcle	0x00fffffd
 800021c:	0001d4bf 			; <UNDEFINED> instruction: 0x0001d4bf
 8000220:	40000001 	andmi	r0, r0, r1

08000224 <SystemInit>:
 8000224:	b580      	push	{r7, lr}
 8000226:	b0b8      	sub	sp, #224	; 0xe0
 8000228:	af00      	add	r7, sp, #0
 800022a:	2300      	movs	r3, #0
 800022c:	f8c7 30dc 	str.w	r3, [r7, #220]	; 0xdc
 8000230:	2300      	movs	r3, #0
 8000232:	f8c7 30d8 	str.w	r3, [r7, #216]	; 0xd8
 8000236:	2300      	movs	r3, #0
 8000238:	f8c7 30d4 	str.w	r3, [r7, #212]	; 0xd4
 800023c:	2300      	movs	r3, #0
 800023e:	f8c7 30d0 	str.w	r3, [r7, #208]	; 0xd0
 8000242:	2300      	movs	r3, #0
 8000244:	f8c7 30cc 	str.w	r3, [r7, #204]	; 0xcc
 8000248:	2300      	movs	r3, #0
 800024a:	f8c7 30c8 	str.w	r3, [r7, #200]	; 0xc8
 800024e:	2300      	movs	r3, #0
 8000250:	f8c7 30c4 	str.w	r3, [r7, #196]	; 0xc4
 8000254:	2300      	movs	r3, #0
 8000256:	f8c7 30c0 	str.w	r3, [r7, #192]	; 0xc0
 800025a:	2300      	movs	r3, #0
 800025c:	f8c7 30bc 	str.w	r3, [r7, #188]	; 0xbc
 8000260:	2300      	movs	r3, #0
 8000262:	f8c7 30b8 	str.w	r3, [r7, #184]	; 0xb8
 8000266:	2300      	movs	r3, #0
 8000268:	f8c7 30b4 	str.w	r3, [r7, #180]	; 0xb4
 800026c:	2300      	movs	r3, #0
 800026e:	f8c7 30b0 	str.w	r3, [r7, #176]	; 0xb0
 8000272:	2300      	movs	r3, #0
 8000274:	f8c7 30ac 	str.w	r3, [r7, #172]	; 0xac
 8000278:	2300      	movs	r3, #0
 800027a:	f8c7 30a8 	str.w	r3, [r7, #168]	; 0xa8
 800027e:	2300      	movs	r3, #0
 8000280:	f8c7 30a4 	str.w	r3, [r7, #164]	; 0xa4
 8000284:	2300      	movs	r3, #0
 8000286:	f8c7 30a0 	str.w	r3, [r7, #160]	; 0xa0
 800028a:	2300      	movs	r3, #0
 800028c:	f8c7 309c 	str.w	r3, [r7, #156]	; 0x9c
 8000290:	2300      	movs	r3, #0
 8000292:	f8c7 3098 	str.w	r3, [r7, #152]	; 0x98
 8000296:	2300      	movs	r3, #0
 8000298:	f8c7 3094 	str.w	r3, [r7, #148]	; 0x94
 800029c:	2300      	movs	r3, #0
 800029e:	f8c7 3090 	str.w	r3, [r7, #144]	; 0x90
 80002a2:	2300      	movs	r3, #0
 80002a4:	f8c7 308c 	str.w	r3, [r7, #140]	; 0x8c
 80002a8:	2300      	movs	r3, #0
 80002aa:	f8c7 3088 	str.w	r3, [r7, #136]	; 0x88
 80002ae:	2300      	movs	r3, #0
 80002b0:	f8c7 3084 	str.w	r3, [r7, #132]	; 0x84
 80002b4:	2300      	movs	r3, #0
 80002b6:	f8c7 3080 	str.w	r3, [r7, #128]	; 0x80
 80002ba:	2300      	movs	r3, #0
 80002bc:	67fb      	str	r3, [r7, #124]	; 0x7c
 80002be:	2300      	movs	r3, #0
 80002c0:	67bb      	str	r3, [r7, #120]	; 0x78
 80002c2:	2300      	movs	r3, #0
 80002c4:	677b      	str	r3, [r7, #116]	; 0x74
 80002c6:	2300      	movs	r3, #0
 80002c8:	673b      	str	r3, [r7, #112]	; 0x70
 80002ca:	2300      	movs	r3, #0
 80002cc:	66fb      	str	r3, [r7, #108]	; 0x6c
 80002ce:	2300      	movs	r3, #0
 80002d0:	66bb      	str	r3, [r7, #104]	; 0x68
 80002d2:	2300      	movs	r3, #0
 80002d4:	667b      	str	r3, [r7, #100]	; 0x64
 80002d6:	2300      	movs	r3, #0
 80002d8:	663b      	str	r3, [r7, #96]	; 0x60
 80002da:	2300      	movs	r3, #0
 80002dc:	65fb      	str	r3, [r7, #92]	; 0x5c
 80002de:	2300      	movs	r3, #0
 80002e0:	65bb      	str	r3, [r7, #88]	; 0x58
 80002e2:	2300      	movs	r3, #0
 80002e4:	657b      	str	r3, [r7, #84]	; 0x54
 80002e6:	2300      	movs	r3, #0
 80002e8:	653b      	str	r3, [r7, #80]	; 0x50
 80002ea:	2300      	movs	r3, #0
 80002ec:	64fb      	str	r3, [r7, #76]	; 0x4c
 80002ee:	2300      	movs	r3, #0
 80002f0:	64bb      	str	r3, [r7, #72]	; 0x48
 80002f2:	2300      	movs	r3, #0
 80002f4:	647b      	str	r3, [r7, #68]	; 0x44
 80002f6:	2300      	movs	r3, #0
 80002f8:	643b      	str	r3, [r7, #64]	; 0x40
 80002fa:	2300      	movs	r3, #0
 80002fc:	63fb      	str	r3, [r7, #60]	; 0x3c
 80002fe:	2300      	movs	r3, #0
 8000300:	63bb      	str	r3, [r7, #56]	; 0x38
 8000302:	2300      	movs	r3, #0
 8000304:	637b      	str	r3, [r7, #52]	; 0x34
 8000306:	2300      	movs	r3, #0
 8000308:	633b      	str	r3, [r7, #48]	; 0x30
 800030a:	2300      	movs	r3, #0
 800030c:	62fb      	str	r3, [r7, #44]	; 0x2c
 800030e:	2300      	movs	r3, #0
 8000310:	62bb      	str	r3, [r7, #40]	; 0x28
 8000312:	2300      	movs	r3, #0
 8000314:	627b      	str	r3, [r7, #36]	; 0x24
 8000316:	2300      	movs	r3, #0
 8000318:	623b      	str	r3, [r7, #32]
 800031a:	2300      	movs	r3, #0
 800031c:	61fb      	str	r3, [r7, #28]
 800031e:	2300      	movs	r3, #0
 8000320:	61bb      	str	r3, [r7, #24]
 8000322:	2300      	movs	r3, #0
 8000324:	617b      	str	r3, [r7, #20]
 8000326:	2300      	movs	r3, #0
 8000328:	613b      	str	r3, [r7, #16]
 800032a:	2300      	movs	r3, #0
 800032c:	60fb      	str	r3, [r7, #12]
 800032e:	2300      	movs	r3, #0
 8000330:	60bb      	str	r3, [r7, #8]
 8000332:	2300      	movs	r3, #0
 8000334:	607b      	str	r3, [r7, #4]
 8000336:	f7ff ff37 	bl	80001a8 <main>
 800033a:	bf00      	nop
 800033c:	37e0      	adds	r7, #224	; 0xe0
 800033e:	46bd      	mov	sp, r7
 8000340:	bd80      	pop	{r7, pc}

08000342 <ADC3_IRQHandler>:
 8000342:	b480      	push	{r7}
 8000344:	b083      	sub	sp, #12
 8000346:	af00      	add	r7, sp, #0
 8000348:	4b03      	ldr	r3, [pc, #12]	; (8000358 <ADC3_IRQHandler+0x16>)
 800034a:	607b      	str	r3, [r7, #4]
 800034c:	bf00      	nop
 800034e:	370c      	adds	r7, #12
 8000350:	46bd      	mov	sp, r7
 8000352:	bc80      	pop	{r7}
 8000354:	4770      	bx	lr
 8000356:	bf00      	nop
 8000358:	deadbeef 	cdple	14, 10, cr11, cr13, cr15, {7}

0800035c <TIM15_IRQHandler>:
 800035c:	b480      	push	{r7}
 800035e:	af00      	add	r7, sp, #0
 8000360:	bf00      	nop
 8000362:	46bd      	mov	sp, r7
 8000364:	bc80      	pop	{r7}
 8000366:	4770      	bx	lr

08000368 <exit>:
 8000368:	e92d4010 	push	{r4, lr}
 800036c:	e3a01000 	mov	r1, #0
 8000370:	e1a04000 	mov	r4, r0
 8000374:	eb00007b 	bl	8000568 <__call_exitprocs>
 8000378:	e59f3018 	ldr	r3, [pc, #24]	; 8000398 <exit+0x30>
 800037c:	e5930000 	ldr	r0, [r3]
 8000380:	e590303c 	ldr	r3, [r0, #60]	; 0x3c
 8000384:	e3530000 	cmp	r3, #0
 8000388:	11a0e00f 	movne	lr, pc
 800038c:	112fff13 	bxne	r3
 8000390:	e1a00004 	mov	r0, r4
 8000394:	eb000115 	bl	80007f0 <_exit>
 8000398:	08000870 	stmdaeq	r0, {r4, r5, r6, fp}

0800039c <__libc_init_array>:
 800039c:	e92d4070 	push	{r4, r5, r6, lr}
 80003a0:	e59f606c 	ldr	r6, [pc, #108]	; 8000414 <__libc_init_array+0x78>
 80003a4:	e59f506c 	ldr	r5, [pc, #108]	; 8000418 <__libc_init_array+0x7c>
 80003a8:	e0466005 	sub	r6, r6, r5
 80003ac:	e1b06146 	asrs	r6, r6, #2
 80003b0:	0a000007 	beq	80003d4 <__libc_init_array+0x38>
 80003b4:	e3a04000 	mov	r4, #0
 80003b8:	e2455004 	sub	r5, r5, #4
 80003bc:	e5b53004 	ldr	r3, [r5, #4]!
 80003c0:	e2844001 	add	r4, r4, #1
 80003c4:	e1a0e00f 	mov	lr, pc
 80003c8:	e12fff13 	bx	r3
 80003cc:	e1560004 	cmp	r6, r4
 80003d0:	1afffff9 	bne	80003bc <__libc_init_array+0x20>
 80003d4:	e59f6040 	ldr	r6, [pc, #64]	; 800041c <__libc_init_array+0x80>
 80003d8:	e59f5040 	ldr	r5, [pc, #64]	; 8000420 <__libc_init_array+0x84>
 80003dc:	e0466005 	sub	r6, r6, r5
 80003e0:	eb000104 	bl	80007f8 <_init>
 80003e4:	e1b06146 	asrs	r6, r6, #2
 80003e8:	0a000007 	beq	800040c <__libc_init_array+0x70>
 80003ec:	e3a04000 	mov	r4, #0
 80003f0:	e2455004 	sub	r5, r5, #4
 80003f4:	e5b53004 	ldr	r3, [r5, #4]!
 80003f8:	e2844001 	add	r4, r4, #1
 80003fc:	e1a0e00f 	mov	lr, pc
 8000400:	e12fff13 	bx	r3
 8000404:	e1560004 	cmp	r6, r4
 8000408:	1afffff9 	bne	80003f4 <__libc_init_array+0x58>
 800040c:	e8bd4070 	pop	{r4, r5, r6, lr}
 8000410:	e12fff1e 	bx	lr
 8000414:	0800087c 	stmdaeq	r0, {r2, r3, r4, r5, r6, fp}
 8000418:	0800087c 	stmdaeq	r0, {r2, r3, r4, r5, r6, fp}
 800041c:	08000884 	stmdaeq	r0, {r2, r7, fp}
 8000420:	0800087c 	stmdaeq	r0, {r2, r3, r4, r5, r6, fp}

08000424 <memset>:
 8000424:	e3100003 	tst	r0, #3
 8000428:	0a000040 	beq	8000530 <memset+0x10c>
 800042c:	e3520000 	cmp	r2, #0
 8000430:	e2422001 	sub	r2, r2, #1
 8000434:	012fff1e 	bxeq	lr
 8000438:	e1a03000 	mov	r3, r0
 800043c:	e201c0ff 	and	ip, r1, #255	; 0xff
 8000440:	ea000002 	b	8000450 <memset+0x2c>
 8000444:	e2422001 	sub	r2, r2, #1
 8000448:	e3720001 	cmn	r2, #1
 800044c:	012fff1e 	bxeq	lr
 8000450:	e4c3c001 	strb	ip, [r3], #1
 8000454:	e3130003 	tst	r3, #3
 8000458:	1afffff9 	bne	8000444 <memset+0x20>
 800045c:	e3520003 	cmp	r2, #3
 8000460:	9a000028 	bls	8000508 <memset+0xe4>
 8000464:	e92d4030 	push	{r4, r5, lr}
 8000468:	e201e0ff 	and	lr, r1, #255	; 0xff
 800046c:	e18ee40e 	orr	lr, lr, lr, lsl #8
 8000470:	e352000f 	cmp	r2, #15
 8000474:	e18ee80e 	orr	lr, lr, lr, lsl #16
 8000478:	9a00002e 	bls	8000538 <memset+0x114>
 800047c:	e242c010 	sub	ip, r2, #16
 8000480:	e3cc400f 	bic	r4, ip, #15
 8000484:	e2835020 	add	r5, r3, #32
 8000488:	e0855004 	add	r5, r5, r4
 800048c:	e1a0422c 	lsr	r4, ip, #4
 8000490:	e283c010 	add	ip, r3, #16
 8000494:	e50ce010 	str	lr, [ip, #-16]
 8000498:	e50ce00c 	str	lr, [ip, #-12]
 800049c:	e50ce008 	str	lr, [ip, #-8]
 80004a0:	e50ce004 	str	lr, [ip, #-4]
 80004a4:	e28cc010 	add	ip, ip, #16
 80004a8:	e15c0005 	cmp	ip, r5
 80004ac:	1afffff8 	bne	8000494 <memset+0x70>
 80004b0:	e284c001 	add	ip, r4, #1
 80004b4:	e312000c 	tst	r2, #12
 80004b8:	e083c20c 	add	ip, r3, ip, lsl #4
 80004bc:	e202200f 	and	r2, r2, #15
 80004c0:	0a000018 	beq	8000528 <memset+0x104>
 80004c4:	e2423004 	sub	r3, r2, #4
 80004c8:	e3c33003 	bic	r3, r3, #3
 80004cc:	e2833004 	add	r3, r3, #4
 80004d0:	e08c3003 	add	r3, ip, r3
 80004d4:	e48ce004 	str	lr, [ip], #4
 80004d8:	e153000c 	cmp	r3, ip
 80004dc:	1afffffc 	bne	80004d4 <memset+0xb0>
 80004e0:	e2022003 	and	r2, r2, #3
 80004e4:	e3520000 	cmp	r2, #0
 80004e8:	0a000004 	beq	8000500 <memset+0xdc>
 80004ec:	e20110ff 	and	r1, r1, #255	; 0xff
 80004f0:	e0832002 	add	r2, r3, r2
 80004f4:	e4c31001 	strb	r1, [r3], #1
 80004f8:	e1520003 	cmp	r2, r3
 80004fc:	1afffffc 	bne	80004f4 <memset+0xd0>
 8000500:	e8bd4030 	pop	{r4, r5, lr}
 8000504:	e12fff1e 	bx	lr
 8000508:	e3520000 	cmp	r2, #0
 800050c:	012fff1e 	bxeq	lr
 8000510:	e20110ff 	and	r1, r1, #255	; 0xff
 8000514:	e0832002 	add	r2, r3, r2
 8000518:	e4c31001 	strb	r1, [r3], #1
 800051c:	e1520003 	cmp	r2, r3
 8000520:	1afffffc 	bne	8000518 <memset+0xf4>
 8000524:	e12fff1e 	bx	lr
 8000528:	e1a0300c 	mov	r3, ip
 800052c:	eaffffec 	b	80004e4 <memset+0xc0>
 8000530:	e1a03000 	mov	r3, r0
 8000534:	eaffffc8 	b	800045c <memset+0x38>
 8000538:	e1a0c003 	mov	ip, r3
 800053c:	eaffffe0 	b	80004c4 <memset+0xa0>

08000540 <register_fini>:
 8000540:	e59f3018 	ldr	r3, [pc, #24]	; 8000560 <register_fini+0x20>
 8000544:	e3530000 	cmp	r3, #0
 8000548:	012fff1e 	bxeq	lr
 800054c:	e92d4010 	push	{r4, lr}
 8000550:	e59f000c 	ldr	r0, [pc, #12]	; 8000564 <register_fini+0x24>
 8000554:	eb000051 	bl	80006a0 <atexit>
 8000558:	e8bd4010 	pop	{r4, lr}
 800055c:	e12fff1e 	bx	lr
 8000560:	00000000 	andeq	r0, r0, r0
 8000564:	080006c0 	stmdaeq	r0, {r6, r7, r9, sl}

08000568 <__call_exitprocs>:
 8000568:	e92d4ff0 	push	{r4, r5, r6, r7, r8, r9, sl, fp, lr}
 800056c:	e1a0b000 	mov	fp, r0
 8000570:	e59f3120 	ldr	r3, [pc, #288]	; 8000698 <__call_exitprocs+0x130>
 8000574:	e24dd00c 	sub	sp, sp, #12
 8000578:	e5930000 	ldr	r0, [r3]
 800057c:	e1a07001 	mov	r7, r1
 8000580:	e58db004 	str	fp, [sp, #4]
 8000584:	eb000063 	bl	8000718 <__retarget_lock_acquire_recursive>
 8000588:	e59f310c 	ldr	r3, [pc, #268]	; 800069c <__call_exitprocs+0x134>
 800058c:	e5938000 	ldr	r8, [r3]
 8000590:	e5986148 	ldr	r6, [r8, #328]	; 0x148
 8000594:	e3560000 	cmp	r6, #0
 8000598:	0a000028 	beq	8000640 <__call_exitprocs+0xd8>
 800059c:	e3a09001 	mov	r9, #1
 80005a0:	e3a0a000 	mov	sl, #0
 80005a4:	e5964004 	ldr	r4, [r6, #4]
 80005a8:	e2545001 	subs	r5, r4, #1
 80005ac:	4a000023 	bmi	8000640 <__call_exitprocs+0xd8>
 80005b0:	e2844001 	add	r4, r4, #1
 80005b4:	e0864104 	add	r4, r6, r4, lsl #2
 80005b8:	ea000003 	b	80005cc <__call_exitprocs+0x64>
 80005bc:	e2455001 	sub	r5, r5, #1
 80005c0:	e3750001 	cmn	r5, #1
 80005c4:	e2444004 	sub	r4, r4, #4
 80005c8:	0a00001c 	beq	8000640 <__call_exitprocs+0xd8>
 80005cc:	e3570000 	cmp	r7, #0
 80005d0:	0a000002 	beq	80005e0 <__call_exitprocs+0x78>
 80005d4:	e5943100 	ldr	r3, [r4, #256]	; 0x100
 80005d8:	e1530007 	cmp	r3, r7
 80005dc:	1afffff6 	bne	80005bc <__call_exitprocs+0x54>
 80005e0:	e5963004 	ldr	r3, [r6, #4]
 80005e4:	e5942000 	ldr	r2, [r4]
 80005e8:	e2433001 	sub	r3, r3, #1
 80005ec:	e1530005 	cmp	r3, r5
 80005f0:	05865004 	streq	r5, [r6, #4]
 80005f4:	1584a000 	strne	sl, [r4]
 80005f8:	e3520000 	cmp	r2, #0
 80005fc:	0affffee 	beq	80005bc <__call_exitprocs+0x54>
 8000600:	e5963188 	ldr	r3, [r6, #392]	; 0x188
 8000604:	e1a01519 	lsl	r1, r9, r5
 8000608:	e1110003 	tst	r1, r3
 800060c:	e596b004 	ldr	fp, [r6, #4]
 8000610:	1a000010 	bne	8000658 <__call_exitprocs+0xf0>
 8000614:	e1a0e00f 	mov	lr, pc
 8000618:	e12fff12 	bx	r2
 800061c:	e5962004 	ldr	r2, [r6, #4]
 8000620:	e152000b 	cmp	r2, fp
 8000624:	1a000015 	bne	8000680 <__call_exitprocs+0x118>
 8000628:	e5983148 	ldr	r3, [r8, #328]	; 0x148
 800062c:	e1530006 	cmp	r3, r6
 8000630:	0affffe1 	beq	80005bc <__call_exitprocs+0x54>
 8000634:	e1a06003 	mov	r6, r3
 8000638:	e3560000 	cmp	r6, #0
 800063c:	1affffd8 	bne	80005a4 <__call_exitprocs+0x3c>
 8000640:	e59f3050 	ldr	r3, [pc, #80]	; 8000698 <__call_exitprocs+0x130>
 8000644:	e5930000 	ldr	r0, [r3]
 8000648:	eb000038 	bl	8000730 <__retarget_lock_release_recursive>
 800064c:	e28dd00c 	add	sp, sp, #12
 8000650:	e8bd4ff0 	pop	{r4, r5, r6, r7, r8, r9, sl, fp, lr}
 8000654:	e12fff1e 	bx	lr
 8000658:	e596018c 	ldr	r0, [r6, #396]	; 0x18c
 800065c:	e1110000 	tst	r1, r0
 8000660:	1a000008 	bne	8000688 <__call_exitprocs+0x120>
 8000664:	e59d0004 	ldr	r0, [sp, #4]
 8000668:	e5941080 	ldr	r1, [r4, #128]	; 0x80
 800066c:	e1a0e00f 	mov	lr, pc
 8000670:	e12fff12 	bx	r2
 8000674:	e5962004 	ldr	r2, [r6, #4]
 8000678:	e152000b 	cmp	r2, fp
 800067c:	0affffe9 	beq	8000628 <__call_exitprocs+0xc0>
 8000680:	e5986148 	ldr	r6, [r8, #328]	; 0x148
 8000684:	eaffffeb 	b	8000638 <__call_exitprocs+0xd0>
 8000688:	e5940080 	ldr	r0, [r4, #128]	; 0x80
 800068c:	e1a0e00f 	mov	lr, pc
 8000690:	e12fff12 	bx	r2
 8000694:	eaffffe0 	b	800061c <__call_exitprocs+0xb4>
 8000698:	24000430 	strcs	r0, [r0], #-1072	; 0xfffffbd0
 800069c:	08000870 	stmdaeq	r0, {r4, r5, r6, fp}

080006a0 <atexit>:
 80006a0:	e3a03000 	mov	r3, #0
 80006a4:	e92d4010 	push	{r4, lr}
 80006a8:	e1a01000 	mov	r1, r0
 80006ac:	e1a02003 	mov	r2, r3
 80006b0:	e1a00003 	mov	r0, r3
 80006b4:	eb00001e 	bl	8000734 <__register_exitproc>
 80006b8:	e8bd4010 	pop	{r4, lr}
 80006bc:	e12fff1e 	bx	lr

080006c0 <__libc_fini_array>:
 80006c0:	e92d4070 	push	{r4, r5, r6, lr}
 80006c4:	e59f5030 	ldr	r5, [pc, #48]	; 80006fc <__libc_fini_array+0x3c>
 80006c8:	e59f4030 	ldr	r4, [pc, #48]	; 8000700 <__libc_fini_array+0x40>
 80006cc:	e0454004 	sub	r4, r5, r4
 80006d0:	e1b04144 	asrs	r4, r4, #2
 80006d4:	0a000005 	beq	80006f0 <__libc_fini_array+0x30>
 80006d8:	e5353004 	ldr	r3, [r5, #-4]!
 80006dc:	e2444001 	sub	r4, r4, #1
 80006e0:	e1a0e00f 	mov	lr, pc
 80006e4:	e12fff13 	bx	r3
 80006e8:	e3540000 	cmp	r4, #0
 80006ec:	1afffff9 	bne	80006d8 <__libc_fini_array+0x18>
 80006f0:	eb000046 	bl	8000810 <_fini>
 80006f4:	e8bd4070 	pop	{r4, r5, r6, lr}
 80006f8:	e12fff1e 	bx	lr
 80006fc:	08000888 	stmdaeq	r0, {r3, r7, fp}
 8000700:	08000884 	stmdaeq	r0, {r2, r7, fp}

08000704 <__retarget_lock_init>:
 8000704:	e12fff1e 	bx	lr

08000708 <__retarget_lock_init_recursive>:
 8000708:	e12fff1e 	bx	lr

0800070c <__retarget_lock_close>:
 800070c:	e12fff1e 	bx	lr

08000710 <__retarget_lock_close_recursive>:
 8000710:	e12fff1e 	bx	lr

08000714 <__retarget_lock_acquire>:
 8000714:	e12fff1e 	bx	lr

08000718 <__retarget_lock_acquire_recursive>:
 8000718:	e12fff1e 	bx	lr

0800071c <__retarget_lock_try_acquire>:
 800071c:	e3a00001 	mov	r0, #1
 8000720:	e12fff1e 	bx	lr

08000724 <__retarget_lock_try_acquire_recursive>:
 8000724:	e3a00001 	mov	r0, #1
 8000728:	e12fff1e 	bx	lr

0800072c <__retarget_lock_release>:
 800072c:	e12fff1e 	bx	lr

08000730 <__retarget_lock_release_recursive>:
 8000730:	e12fff1e 	bx	lr

08000734 <__register_exitproc>:
 8000734:	e92d41f0 	push	{r4, r5, r6, r7, r8, lr}
 8000738:	e59f80a8 	ldr	r8, [pc, #168]	; 80007e8 <__register_exitproc+0xb4>
 800073c:	e1a04000 	mov	r4, r0
 8000740:	e5980000 	ldr	r0, [r8]
 8000744:	e1a06003 	mov	r6, r3
 8000748:	e1a05001 	mov	r5, r1
 800074c:	e1a07002 	mov	r7, r2
 8000750:	ebfffff0 	bl	8000718 <__retarget_lock_acquire_recursive>
 8000754:	e59f3090 	ldr	r3, [pc, #144]	; 80007ec <__register_exitproc+0xb8>
 8000758:	e5933000 	ldr	r3, [r3]
 800075c:	e593c148 	ldr	ip, [r3, #328]	; 0x148
 8000760:	e35c0000 	cmp	ip, #0
 8000764:	0283cf53 	addeq	ip, r3, #332	; 0x14c
 8000768:	e59ce004 	ldr	lr, [ip, #4]
 800076c:	0583c148 	streq	ip, [r3, #328]	; 0x148
 8000770:	e35e001f 	cmp	lr, #31
 8000774:	ca000017 	bgt	80007d8 <__register_exitproc+0xa4>
 8000778:	e3540000 	cmp	r4, #0
 800077c:	1a000008 	bne	80007a4 <__register_exitproc+0x70>
 8000780:	e28e3001 	add	r3, lr, #1
 8000784:	e28ee002 	add	lr, lr, #2
 8000788:	e58c3004 	str	r3, [ip, #4]
 800078c:	e5980000 	ldr	r0, [r8]
 8000790:	e78c510e 	str	r5, [ip, lr, lsl #2]
 8000794:	ebffffe5 	bl	8000730 <__retarget_lock_release_recursive>
 8000798:	e3a00000 	mov	r0, #0
 800079c:	e8bd41f0 	pop	{r4, r5, r6, r7, r8, lr}
 80007a0:	e12fff1e 	bx	lr
 80007a4:	e3a03001 	mov	r3, #1
 80007a8:	e08c110e 	add	r1, ip, lr, lsl #2
 80007ac:	e5817088 	str	r7, [r1, #136]	; 0x88
 80007b0:	e59c2188 	ldr	r2, [ip, #392]	; 0x188
 80007b4:	e1a03e13 	lsl	r3, r3, lr
 80007b8:	e1822003 	orr	r2, r2, r3
 80007bc:	e58c2188 	str	r2, [ip, #392]	; 0x188
 80007c0:	e5816108 	str	r6, [r1, #264]	; 0x108
 80007c4:	e3540002 	cmp	r4, #2
 80007c8:	059c218c 	ldreq	r2, [ip, #396]	; 0x18c
 80007cc:	01823003 	orreq	r3, r2, r3
 80007d0:	058c318c 	streq	r3, [ip, #396]	; 0x18c
 80007d4:	eaffffe9 	b	8000780 <__register_exitproc+0x4c>
 80007d8:	e5980000 	ldr	r0, [r8]
 80007dc:	ebffffd3 	bl	8000730 <__retarget_lock_release_recursive>
 80007e0:	e3e00000 	mvn	r0, #0
 80007e4:	eaffffec 	b	800079c <__register_exitproc+0x68>
 80007e8:	24000430 	strcs	r0, [r0], #-1072	; 0xfffffbd0
 80007ec:	08000870 	stmdaeq	r0, {r4, r5, r6, fp}

080007f0 <_exit>:
 80007f0:	eafffffe 	b	80007f0 <_exit>

080007f4 <__EH_FRAME_BEGIN__>:
 80007f4:	00000000 	andeq	r0, r0, r0

080007f8 <_init>:
 80007f8:	e1a0c00d 	mov	ip, sp
 80007fc:	e92ddff8 	push	{r3, r4, r5, r6, r7, r8, r9, sl, fp, ip, lr, pc}
 8000800:	e24cb004 	sub	fp, ip, #4
 8000804:	e24bd028 	sub	sp, fp, #40	; 0x28
 8000808:	e89d6ff0 	ldm	sp, {r4, r5, r6, r7, r8, r9, sl, fp, sp, lr}
 800080c:	e12fff1e 	bx	lr

08000810 <_fini>:
 8000810:	e1a0c00d 	mov	ip, sp
 8000814:	e92ddff8 	push	{r3, r4, r5, r6, r7, r8, r9, sl, fp, ip, lr, pc}
 8000818:	e24cb004 	sub	fp, ip, #4
 800081c:	e24bd028 	sub	sp, fp, #40	; 0x28
 8000820:	e89d6ff0 	ldm	sp, {r4, r5, r6, r7, r8, r9, sl, fp, sp, lr}
 8000824:	e12fff1e 	bx	lr

Disassembly of section .ARM:

08000874 <__exidx_start>:
 8000874:	7ffff7fc 	svcvc	0x00fff7fc
 8000878:	00000001 	andeq	r0, r0, r1
