
nucleo-H743.elf:     file format elf32-littlearm


Disassembly of section .isr_vector:

08000000 <g_pfnVectors>:
 8000000:	20020000 	andcs	r0, r2, r0
 8000004:	08000a9d 	stmdaeq	r0, {r0, r2, r3, r4, r7, r9, fp}
 8000008:	08000aed 	stmdaeq	r0, {r0, r2, r3, r5, r6, r7, r9, fp}
 800000c:	08000aed 	stmdaeq	r0, {r0, r2, r3, r5, r6, r7, r9, fp}
 8000010:	08000aed 	stmdaeq	r0, {r0, r2, r3, r5, r6, r7, r9, fp}
 8000014:	08000aed 	stmdaeq	r0, {r0, r2, r3, r5, r6, r7, r9, fp}
 8000018:	08000aed 	stmdaeq	r0, {r0, r2, r3, r5, r6, r7, r9, fp}
	...
 800002c:	08000aed 	stmdaeq	r0, {r0, r2, r3, r5, r6, r7, r9, fp}
 8000030:	08000aed 	stmdaeq	r0, {r0, r2, r3, r5, r6, r7, r9, fp}
 8000034:	00000000 	andeq	r0, r0, r0
 8000038:	08000aed 	stmdaeq	r0, {r0, r2, r3, r5, r6, r7, r9, fp}
 800003c:	08000aed 	stmdaeq	r0, {r0, r2, r3, r5, r6, r7, r9, fp}
 8000040:	08000aed 	stmdaeq	r0, {r0, r2, r3, r5, r6, r7, r9, fp}
 8000044:	08000aed 	stmdaeq	r0, {r0, r2, r3, r5, r6, r7, r9, fp}
 8000048:	08000aed 	stmdaeq	r0, {r0, r2, r3, r5, r6, r7, r9, fp}
 800004c:	08000aed 	stmdaeq	r0, {r0, r2, r3, r5, r6, r7, r9, fp}
 8000050:	08000aed 	stmdaeq	r0, {r0, r2, r3, r5, r6, r7, r9, fp}
 8000054:	08000aed 	stmdaeq	r0, {r0, r2, r3, r5, r6, r7, r9, fp}
 8000058:	08000aed 	stmdaeq	r0, {r0, r2, r3, r5, r6, r7, r9, fp}
 800005c:	08000aed 	stmdaeq	r0, {r0, r2, r3, r5, r6, r7, r9, fp}
 8000060:	08000aed 	stmdaeq	r0, {r0, r2, r3, r5, r6, r7, r9, fp}
 8000064:	08000aed 	stmdaeq	r0, {r0, r2, r3, r5, r6, r7, r9, fp}
 8000068:	08000aed 	stmdaeq	r0, {r0, r2, r3, r5, r6, r7, r9, fp}
 800006c:	08000aed 	stmdaeq	r0, {r0, r2, r3, r5, r6, r7, r9, fp}
 8000070:	08000aed 	stmdaeq	r0, {r0, r2, r3, r5, r6, r7, r9, fp}
 8000074:	08000aed 	stmdaeq	r0, {r0, r2, r3, r5, r6, r7, r9, fp}
 8000078:	08000aed 	stmdaeq	r0, {r0, r2, r3, r5, r6, r7, r9, fp}
 800007c:	08000aed 	stmdaeq	r0, {r0, r2, r3, r5, r6, r7, r9, fp}
 8000080:	08000aed 	stmdaeq	r0, {r0, r2, r3, r5, r6, r7, r9, fp}
 8000084:	08000aed 	stmdaeq	r0, {r0, r2, r3, r5, r6, r7, r9, fp}
 8000088:	08000aed 	stmdaeq	r0, {r0, r2, r3, r5, r6, r7, r9, fp}
 800008c:	08000aed 	stmdaeq	r0, {r0, r2, r3, r5, r6, r7, r9, fp}
 8000090:	08000aed 	stmdaeq	r0, {r0, r2, r3, r5, r6, r7, r9, fp}
 8000094:	08000aed 	stmdaeq	r0, {r0, r2, r3, r5, r6, r7, r9, fp}
 8000098:	08000aed 	stmdaeq	r0, {r0, r2, r3, r5, r6, r7, r9, fp}
 800009c:	08000aed 	stmdaeq	r0, {r0, r2, r3, r5, r6, r7, r9, fp}
 80000a0:	08000aed 	stmdaeq	r0, {r0, r2, r3, r5, r6, r7, r9, fp}
 80000a4:	08000aed 	stmdaeq	r0, {r0, r2, r3, r5, r6, r7, r9, fp}
 80000a8:	08000aed 	stmdaeq	r0, {r0, r2, r3, r5, r6, r7, r9, fp}
 80000ac:	08000aed 	stmdaeq	r0, {r0, r2, r3, r5, r6, r7, r9, fp}
 80000b0:	08000aed 	stmdaeq	r0, {r0, r2, r3, r5, r6, r7, r9, fp}
 80000b4:	08000aed 	stmdaeq	r0, {r0, r2, r3, r5, r6, r7, r9, fp}
 80000b8:	08000aed 	stmdaeq	r0, {r0, r2, r3, r5, r6, r7, r9, fp}
 80000bc:	08000aed 	stmdaeq	r0, {r0, r2, r3, r5, r6, r7, r9, fp}
 80000c0:	08000aed 	stmdaeq	r0, {r0, r2, r3, r5, r6, r7, r9, fp}
 80000c4:	08000aed 	stmdaeq	r0, {r0, r2, r3, r5, r6, r7, r9, fp}
 80000c8:	08000aed 	stmdaeq	r0, {r0, r2, r3, r5, r6, r7, r9, fp}
 80000cc:	08000aed 	stmdaeq	r0, {r0, r2, r3, r5, r6, r7, r9, fp}
 80000d0:	08000aed 	stmdaeq	r0, {r0, r2, r3, r5, r6, r7, r9, fp}
 80000d4:	08000aed 	stmdaeq	r0, {r0, r2, r3, r5, r6, r7, r9, fp}
 80000d8:	08000aed 	stmdaeq	r0, {r0, r2, r3, r5, r6, r7, r9, fp}
 80000dc:	08000aed 	stmdaeq	r0, {r0, r2, r3, r5, r6, r7, r9, fp}
 80000e0:	08000aed 	stmdaeq	r0, {r0, r2, r3, r5, r6, r7, r9, fp}
 80000e4:	08000aed 	stmdaeq	r0, {r0, r2, r3, r5, r6, r7, r9, fp}
 80000e8:	00000000 	andeq	r0, r0, r0
 80000ec:	08000aed 	stmdaeq	r0, {r0, r2, r3, r5, r6, r7, r9, fp}
 80000f0:	08000aed 	stmdaeq	r0, {r0, r2, r3, r5, r6, r7, r9, fp}
 80000f4:	08000aed 	stmdaeq	r0, {r0, r2, r3, r5, r6, r7, r9, fp}
 80000f8:	08000aed 	stmdaeq	r0, {r0, r2, r3, r5, r6, r7, r9, fp}
 80000fc:	08000aed 	stmdaeq	r0, {r0, r2, r3, r5, r6, r7, r9, fp}
 8000100:	08000aed 	stmdaeq	r0, {r0, r2, r3, r5, r6, r7, r9, fp}
 8000104:	08000aed 	stmdaeq	r0, {r0, r2, r3, r5, r6, r7, r9, fp}
 8000108:	08000aed 	stmdaeq	r0, {r0, r2, r3, r5, r6, r7, r9, fp}
 800010c:	08000aed 	stmdaeq	r0, {r0, r2, r3, r5, r6, r7, r9, fp}
 8000110:	08000aed 	stmdaeq	r0, {r0, r2, r3, r5, r6, r7, r9, fp}
 8000114:	08000aed 	stmdaeq	r0, {r0, r2, r3, r5, r6, r7, r9, fp}
 8000118:	08000aed 	stmdaeq	r0, {r0, r2, r3, r5, r6, r7, r9, fp}
 800011c:	08000aed 	stmdaeq	r0, {r0, r2, r3, r5, r6, r7, r9, fp}
 8000120:	08000aed 	stmdaeq	r0, {r0, r2, r3, r5, r6, r7, r9, fp}
 8000124:	08000aed 	stmdaeq	r0, {r0, r2, r3, r5, r6, r7, r9, fp}
 8000128:	08000aed 	stmdaeq	r0, {r0, r2, r3, r5, r6, r7, r9, fp}
 800012c:	08000aed 	stmdaeq	r0, {r0, r2, r3, r5, r6, r7, r9, fp}
 8000130:	08000aed 	stmdaeq	r0, {r0, r2, r3, r5, r6, r7, r9, fp}
 8000134:	08000aed 	stmdaeq	r0, {r0, r2, r3, r5, r6, r7, r9, fp}
 8000138:	08000aed 	stmdaeq	r0, {r0, r2, r3, r5, r6, r7, r9, fp}
 800013c:	08000aed 	stmdaeq	r0, {r0, r2, r3, r5, r6, r7, r9, fp}
	...
 8000150:	08000aed 	stmdaeq	r0, {r0, r2, r3, r5, r6, r7, r9, fp}
 8000154:	08000aed 	stmdaeq	r0, {r0, r2, r3, r5, r6, r7, r9, fp}
 8000158:	08000aed 	stmdaeq	r0, {r0, r2, r3, r5, r6, r7, r9, fp}
 800015c:	08000aed 	stmdaeq	r0, {r0, r2, r3, r5, r6, r7, r9, fp}
 8000160:	08000aed 	stmdaeq	r0, {r0, r2, r3, r5, r6, r7, r9, fp}
 8000164:	08000aed 	stmdaeq	r0, {r0, r2, r3, r5, r6, r7, r9, fp}
 8000168:	08000aed 	stmdaeq	r0, {r0, r2, r3, r5, r6, r7, r9, fp}
 800016c:	08000aed 	stmdaeq	r0, {r0, r2, r3, r5, r6, r7, r9, fp}
 8000170:	08000aed 	stmdaeq	r0, {r0, r2, r3, r5, r6, r7, r9, fp}
 8000174:	08000aed 	stmdaeq	r0, {r0, r2, r3, r5, r6, r7, r9, fp}
 8000178:	08000aed 	stmdaeq	r0, {r0, r2, r3, r5, r6, r7, r9, fp}
 800017c:	00000000 	andeq	r0, r0, r0
 8000180:	08000aed 	stmdaeq	r0, {r0, r2, r3, r5, r6, r7, r9, fp}
 8000184:	08000aed 	stmdaeq	r0, {r0, r2, r3, r5, r6, r7, r9, fp}
 8000188:	08000aed 	stmdaeq	r0, {r0, r2, r3, r5, r6, r7, r9, fp}
 800018c:	08000aed 	stmdaeq	r0, {r0, r2, r3, r5, r6, r7, r9, fp}
 8000190:	08000aed 	stmdaeq	r0, {r0, r2, r3, r5, r6, r7, r9, fp}
 8000194:	08000aed 	stmdaeq	r0, {r0, r2, r3, r5, r6, r7, r9, fp}
 8000198:	08000aed 	stmdaeq	r0, {r0, r2, r3, r5, r6, r7, r9, fp}
 800019c:	08000aed 	stmdaeq	r0, {r0, r2, r3, r5, r6, r7, r9, fp}
 80001a0:	08000aed 	stmdaeq	r0, {r0, r2, r3, r5, r6, r7, r9, fp}
 80001a4:	08000aed 	stmdaeq	r0, {r0, r2, r3, r5, r6, r7, r9, fp}
 80001a8:	08000aed 	stmdaeq	r0, {r0, r2, r3, r5, r6, r7, r9, fp}
 80001ac:	08000aed 	stmdaeq	r0, {r0, r2, r3, r5, r6, r7, r9, fp}
 80001b0:	08000aed 	stmdaeq	r0, {r0, r2, r3, r5, r6, r7, r9, fp}
 80001b4:	08000aed 	stmdaeq	r0, {r0, r2, r3, r5, r6, r7, r9, fp}
 80001b8:	08000aed 	stmdaeq	r0, {r0, r2, r3, r5, r6, r7, r9, fp}
 80001bc:	08000aed 	stmdaeq	r0, {r0, r2, r3, r5, r6, r7, r9, fp}
 80001c0:	08000aed 	stmdaeq	r0, {r0, r2, r3, r5, r6, r7, r9, fp}
 80001c4:	08000aed 	stmdaeq	r0, {r0, r2, r3, r5, r6, r7, r9, fp}
 80001c8:	08000aed 	stmdaeq	r0, {r0, r2, r3, r5, r6, r7, r9, fp}
 80001cc:	08000aed 	stmdaeq	r0, {r0, r2, r3, r5, r6, r7, r9, fp}
 80001d0:	08000aed 	stmdaeq	r0, {r0, r2, r3, r5, r6, r7, r9, fp}
 80001d4:	08000aed 	stmdaeq	r0, {r0, r2, r3, r5, r6, r7, r9, fp}
 80001d8:	08000aed 	stmdaeq	r0, {r0, r2, r3, r5, r6, r7, r9, fp}
 80001dc:	08000aed 	stmdaeq	r0, {r0, r2, r3, r5, r6, r7, r9, fp}
 80001e0:	08000aed 	stmdaeq	r0, {r0, r2, r3, r5, r6, r7, r9, fp}
 80001e4:	08000aed 	stmdaeq	r0, {r0, r2, r3, r5, r6, r7, r9, fp}
 80001e8:	08000aed 	stmdaeq	r0, {r0, r2, r3, r5, r6, r7, r9, fp}
 80001ec:	08000aed 	stmdaeq	r0, {r0, r2, r3, r5, r6, r7, r9, fp}
 80001f0:	08000aed 	stmdaeq	r0, {r0, r2, r3, r5, r6, r7, r9, fp}
 80001f4:	08000aed 	stmdaeq	r0, {r0, r2, r3, r5, r6, r7, r9, fp}
 80001f8:	08000aed 	stmdaeq	r0, {r0, r2, r3, r5, r6, r7, r9, fp}
 80001fc:	08000aed 	stmdaeq	r0, {r0, r2, r3, r5, r6, r7, r9, fp}
 8000200:	08000aed 	stmdaeq	r0, {r0, r2, r3, r5, r6, r7, r9, fp}
 8000204:	08000aed 	stmdaeq	r0, {r0, r2, r3, r5, r6, r7, r9, fp}
 8000208:	08000aed 	stmdaeq	r0, {r0, r2, r3, r5, r6, r7, r9, fp}
 800020c:	08000aed 	stmdaeq	r0, {r0, r2, r3, r5, r6, r7, r9, fp}
 8000210:	080005f5 	stmdaeq	r0, {r0, r2, r4, r5, r6, r7, r8, sl}
 8000214:	08000aed 	stmdaeq	r0, {r0, r2, r3, r5, r6, r7, r9, fp}
 8000218:	08000aed 	stmdaeq	r0, {r0, r2, r3, r5, r6, r7, r9, fp}
 800021c:	08000aed 	stmdaeq	r0, {r0, r2, r3, r5, r6, r7, r9, fp}
 8000220:	08000aed 	stmdaeq	r0, {r0, r2, r3, r5, r6, r7, r9, fp}
 8000224:	08000aed 	stmdaeq	r0, {r0, r2, r3, r5, r6, r7, r9, fp}
 8000228:	08000aed 	stmdaeq	r0, {r0, r2, r3, r5, r6, r7, r9, fp}
 800022c:	00000000 	andeq	r0, r0, r0
 8000230:	08000aed 	stmdaeq	r0, {r0, r2, r3, r5, r6, r7, r9, fp}
 8000234:	08000aed 	stmdaeq	r0, {r0, r2, r3, r5, r6, r7, r9, fp}
 8000238:	00000000 	andeq	r0, r0, r0
 800023c:	080005db 	stmdaeq	r0, {r0, r1, r3, r4, r6, r7, r8, sl}
 8000240:	08000aed 	stmdaeq	r0, {r0, r2, r3, r5, r6, r7, r9, fp}
 8000244:	08000aed 	stmdaeq	r0, {r0, r2, r3, r5, r6, r7, r9, fp}
 8000248:	08000aed 	stmdaeq	r0, {r0, r2, r3, r5, r6, r7, r9, fp}
 800024c:	08000aed 	stmdaeq	r0, {r0, r2, r3, r5, r6, r7, r9, fp}
 8000250:	08000aed 	stmdaeq	r0, {r0, r2, r3, r5, r6, r7, r9, fp}
 8000254:	08000aed 	stmdaeq	r0, {r0, r2, r3, r5, r6, r7, r9, fp}
 8000258:	08000aed 	stmdaeq	r0, {r0, r2, r3, r5, r6, r7, r9, fp}
 800025c:	08000aed 	stmdaeq	r0, {r0, r2, r3, r5, r6, r7, r9, fp}
 8000260:	08000aed 	stmdaeq	r0, {r0, r2, r3, r5, r6, r7, r9, fp}
 8000264:	08000aed 	stmdaeq	r0, {r0, r2, r3, r5, r6, r7, r9, fp}
 8000268:	08000aed 	stmdaeq	r0, {r0, r2, r3, r5, r6, r7, r9, fp}
 800026c:	08000aed 	stmdaeq	r0, {r0, r2, r3, r5, r6, r7, r9, fp}
 8000270:	08000aed 	stmdaeq	r0, {r0, r2, r3, r5, r6, r7, r9, fp}
 8000274:	08000aed 	stmdaeq	r0, {r0, r2, r3, r5, r6, r7, r9, fp}
 8000278:	08000aed 	stmdaeq	r0, {r0, r2, r3, r5, r6, r7, r9, fp}
 800027c:	00000000 	andeq	r0, r0, r0
 8000280:	08000aed 	stmdaeq	r0, {r0, r2, r3, r5, r6, r7, r9, fp}
 8000284:	08000aed 	stmdaeq	r0, {r0, r2, r3, r5, r6, r7, r9, fp}
 8000288:	08000aed 	stmdaeq	r0, {r0, r2, r3, r5, r6, r7, r9, fp}
	...
 8000294:	08000aed 	stmdaeq	r0, {r0, r2, r3, r5, r6, r7, r9, fp}

Disassembly of section .text:

08000298 <__do_global_dtors_aux>:
 8000298:	e92d4010 	push	{r4, lr}
 800029c:	e59f4028 	ldr	r4, [pc, #40]	; 80002cc <__do_global_dtors_aux+0x34>
 80002a0:	e5d43000 	ldrb	r3, [r4]
 80002a4:	e3530000 	cmp	r3, #0
 80002a8:	1a000005 	bne	80002c4 <__do_global_dtors_aux+0x2c>
 80002ac:	e59f301c 	ldr	r3, [pc, #28]	; 80002d0 <__do_global_dtors_aux+0x38>
 80002b0:	e3530000 	cmp	r3, #0
 80002b4:	159f0018 	ldrne	r0, [pc, #24]	; 80002d4 <__do_global_dtors_aux+0x3c>
 80002b8:	11a00000 	movne	r0, r0
 80002bc:	e3a03001 	mov	r3, #1
 80002c0:	e5c43000 	strb	r3, [r4]
 80002c4:	e8bd4010 	pop	{r4, lr}
 80002c8:	e12fff1e 	bx	lr
 80002cc:	20000434 	andcs	r0, r0, r4, lsr r4
 80002d0:	00000000 	andeq	r0, r0, r0
 80002d4:	08000af4 	stmdaeq	r0, {r2, r4, r5, r6, r7, r9, fp}

080002d8 <frame_dummy>:
 80002d8:	e59f301c 	ldr	r3, [pc, #28]	; 80002fc <frame_dummy+0x24>
 80002dc:	e3530000 	cmp	r3, #0
 80002e0:	012fff1e 	bxeq	lr
 80002e4:	e92d4010 	push	{r4, lr}
 80002e8:	e59f1010 	ldr	r1, [pc, #16]	; 8000300 <frame_dummy+0x28>
 80002ec:	e59f0010 	ldr	r0, [pc, #16]	; 8000304 <frame_dummy+0x2c>
 80002f0:	e1a00000 	nop			; (mov r0, r0)
 80002f4:	e8bd4010 	pop	{r4, lr}
 80002f8:	e12fff1e 	bx	lr
 80002fc:	00000000 	andeq	r0, r0, r0
 8000300:	20000438 	andcs	r0, r0, r8, lsr r4
 8000304:	08000af4 	stmdaeq	r0, {r2, r4, r5, r6, r7, r9, fp}

08000308 <_stack_init>:
 8000308:	e10f4000 	mrs	r4, CPSR
 800030c:	e314000f 	tst	r4, #15
 8000310:	0a00001c 	beq	8000388 <_stack_init+0x80>
 8000314:	e1a0300d 	mov	r3, sp
 8000318:	e3a010d1 	mov	r1, #209	; 0xd1
 800031c:	e121f001 	msr	CPSR_c, r1
 8000320:	e1a0d003 	mov	sp, r3
 8000324:	e24daa01 	sub	sl, sp, #4096	; 0x1000
 8000328:	e1a0300a 	mov	r3, sl
 800032c:	e3a010d7 	mov	r1, #215	; 0xd7
 8000330:	e121f001 	msr	CPSR_c, r1
 8000334:	e1a0d003 	mov	sp, r3
 8000338:	e2433a01 	sub	r3, r3, #4096	; 0x1000
 800033c:	e3a010db 	mov	r1, #219	; 0xdb
 8000340:	e121f001 	msr	CPSR_c, r1
 8000344:	e1a0d003 	mov	sp, r3
 8000348:	e2433a01 	sub	r3, r3, #4096	; 0x1000
 800034c:	e3a010d2 	mov	r1, #210	; 0xd2
 8000350:	e121f001 	msr	CPSR_c, r1
 8000354:	e1a0d003 	mov	sp, r3
 8000358:	e2433a02 	sub	r3, r3, #8192	; 0x2000
 800035c:	e3a010d3 	mov	r1, #211	; 0xd3
 8000360:	e121f001 	msr	CPSR_c, r1
 8000364:	e1a0d003 	mov	sp, r3
 8000368:	e2433902 	sub	r3, r3, #32768	; 0x8000
 800036c:	e3c330ff 	bic	r3, r3, #255	; 0xff
 8000370:	e3c33cff 	bic	r3, r3, #65280	; 0xff00
 8000374:	e3a010df 	mov	r1, #223	; 0xdf
 8000378:	e121f001 	msr	CPSR_c, r1
 800037c:	e1a0d003 	mov	sp, r3
 8000380:	e38440c0 	orr	r4, r4, #192	; 0xc0
 8000384:	e121f004 	msr	CPSR_c, r4
 8000388:	e243a801 	sub	sl, r3, #65536	; 0x10000
 800038c:	e12fff1e 	bx	lr

08000390 <_mainCRTStartup>:
 8000390:	e59f3094 	ldr	r3, [pc, #148]	; 800042c <_mainCRTStartup+0x9c>
 8000394:	e3530000 	cmp	r3, #0
 8000398:	059f3080 	ldreq	r3, [pc, #128]	; 8000420 <_mainCRTStartup+0x90>
 800039c:	e1a0d003 	mov	sp, r3
 80003a0:	ebffffd8 	bl	8000308 <_stack_init>
 80003a4:	e3b01000 	movs	r1, #0
 80003a8:	e1a0b001 	mov	fp, r1
 80003ac:	e1a07001 	mov	r7, r1
 80003b0:	e59f0078 	ldr	r0, [pc, #120]	; 8000430 <_mainCRTStartup+0xa0>
 80003b4:	e59f2078 	ldr	r2, [pc, #120]	; 8000434 <_mainCRTStartup+0xa4>
 80003b8:	e0522000 	subs	r2, r2, r0
 80003bc:	eb0000c3 	bl	80006d0 <memset>
 80003c0:	e59f305c 	ldr	r3, [pc, #92]	; 8000424 <_mainCRTStartup+0x94>
 80003c4:	e3530000 	cmp	r3, #0
 80003c8:	0a000001 	beq	80003d4 <_mainCRTStartup+0x44>
 80003cc:	e1a0e00f 	mov	lr, pc
 80003d0:	e1a0f003 	mov	pc, r3
 80003d4:	e59f304c 	ldr	r3, [pc, #76]	; 8000428 <_mainCRTStartup+0x98>
 80003d8:	e3530000 	cmp	r3, #0
 80003dc:	0a000001 	beq	80003e8 <_mainCRTStartup+0x58>
 80003e0:	e1a0e00f 	mov	lr, pc
 80003e4:	e1a0f003 	mov	pc, r3
 80003e8:	e3b00000 	movs	r0, #0
 80003ec:	e3b01000 	movs	r1, #0
 80003f0:	e1b04000 	movs	r4, r0
 80003f4:	e1b05001 	movs	r5, r1
 80003f8:	e59f0038 	ldr	r0, [pc, #56]	; 8000438 <_mainCRTStartup+0xa8>
 80003fc:	e3500000 	cmp	r0, #0
 8000400:	0a000001 	beq	800040c <_mainCRTStartup+0x7c>
 8000404:	e59f0030 	ldr	r0, [pc, #48]	; 800043c <_mainCRTStartup+0xac>
 8000408:	eb00014f 	bl	800094c <atexit>
 800040c:	eb00008d 	bl	8000648 <__libc_init_array>
 8000410:	e1b00004 	movs	r0, r4
 8000414:	e1b01005 	movs	r1, r5
 8000418:	fa000008 	blx	8000440 <main>
 800041c:	eb00007c 	bl	8000614 <exit>
 8000420:	00080000 	andeq	r0, r8, r0
	...
 8000430:	20000434 	andcs	r0, r0, r4, lsr r4
 8000434:	20000474 	andcs	r0, r0, r4, ror r4
 8000438:	0800094c 	stmdaeq	r0, {r2, r3, r6, r8, fp}
 800043c:	0800096c 	stmdaeq	r0, {r2, r3, r5, r6, r8, fp}

08000440 <main>:
 8000440:	b480      	push	{r7}
 8000442:	b085      	sub	sp, #20
 8000444:	af00      	add	r7, sp, #0
 8000446:	2301      	movs	r3, #1
 8000448:	607b      	str	r3, [r7, #4]
 800044a:	4b17      	ldr	r3, [pc, #92]	; (80004a8 <main+0x68>)
 800044c:	f8d3 30e0 	ldr.w	r3, [r3, #224]	; 0xe0
 8000450:	4a15      	ldr	r2, [pc, #84]	; (80004a8 <main+0x68>)
 8000452:	f043 0302 	orr.w	r3, r3, #2
 8000456:	f8c2 30e0 	str.w	r3, [r2, #224]	; 0xe0
 800045a:	4b14      	ldr	r3, [pc, #80]	; (80004ac <main+0x6c>)
 800045c:	681a      	ldr	r2, [r3, #0]
 800045e:	4913      	ldr	r1, [pc, #76]	; (80004ac <main+0x6c>)
 8000460:	4b13      	ldr	r3, [pc, #76]	; (80004b0 <main+0x70>)
 8000462:	4013      	ands	r3, r2
 8000464:	600b      	str	r3, [r1, #0]
 8000466:	4b11      	ldr	r3, [pc, #68]	; (80004ac <main+0x6c>)
 8000468:	699b      	ldr	r3, [r3, #24]
 800046a:	4a10      	ldr	r2, [pc, #64]	; (80004ac <main+0x6c>)
 800046c:	f443 33a0 	orr.w	r3, r3, #81920	; 0x14000
 8000470:	6193      	str	r3, [r2, #24]
 8000472:	2300      	movs	r3, #0
 8000474:	60fb      	str	r3, [r7, #12]
 8000476:	e002      	b.n	800047e <main+0x3e>
 8000478:	68fb      	ldr	r3, [r7, #12]
 800047a:	3301      	adds	r3, #1
 800047c:	60fb      	str	r3, [r7, #12]
 800047e:	68fb      	ldr	r3, [r7, #12]
 8000480:	4a0c      	ldr	r2, [pc, #48]	; (80004b4 <main+0x74>)
 8000482:	4293      	cmp	r3, r2
 8000484:	ddf8      	ble.n	8000478 <main+0x38>
 8000486:	4b09      	ldr	r3, [pc, #36]	; (80004ac <main+0x6c>)
 8000488:	699a      	ldr	r2, [r3, #24]
 800048a:	4908      	ldr	r1, [pc, #32]	; (80004ac <main+0x6c>)
 800048c:	4b0a      	ldr	r3, [pc, #40]	; (80004b8 <main+0x78>)
 800048e:	4313      	orrs	r3, r2
 8000490:	618b      	str	r3, [r1, #24]
 8000492:	2300      	movs	r3, #0
 8000494:	60bb      	str	r3, [r7, #8]
 8000496:	e002      	b.n	800049e <main+0x5e>
 8000498:	68bb      	ldr	r3, [r7, #8]
 800049a:	3301      	adds	r3, #1
 800049c:	60bb      	str	r3, [r7, #8]
 800049e:	68bb      	ldr	r3, [r7, #8]
 80004a0:	4a04      	ldr	r2, [pc, #16]	; (80004b4 <main+0x74>)
 80004a2:	4293      	cmp	r3, r2
 80004a4:	ddf8      	ble.n	8000498 <main+0x58>
 80004a6:	e7de      	b.n	8000466 <main+0x26>
 80004a8:	58024400 	stmdapl	r2, {sl, lr}
 80004ac:	58020400 	stmdapl	r2, {sl}
 80004b0:	dffffffd 	svcle	0x00fffffd
 80004b4:	0001d4bf 			; <UNDEFINED> instruction: 0x0001d4bf
 80004b8:	40000001 	andmi	r0, r0, r1

080004bc <SystemInit>:
 80004bc:	b580      	push	{r7, lr}
 80004be:	b0b8      	sub	sp, #224	; 0xe0
 80004c0:	af00      	add	r7, sp, #0
 80004c2:	2300      	movs	r3, #0
 80004c4:	f8c7 30dc 	str.w	r3, [r7, #220]	; 0xdc
 80004c8:	2300      	movs	r3, #0
 80004ca:	f8c7 30d8 	str.w	r3, [r7, #216]	; 0xd8
 80004ce:	2300      	movs	r3, #0
 80004d0:	f8c7 30d4 	str.w	r3, [r7, #212]	; 0xd4
 80004d4:	2300      	movs	r3, #0
 80004d6:	f8c7 30d0 	str.w	r3, [r7, #208]	; 0xd0
 80004da:	2300      	movs	r3, #0
 80004dc:	f8c7 30cc 	str.w	r3, [r7, #204]	; 0xcc
 80004e0:	2300      	movs	r3, #0
 80004e2:	f8c7 30c8 	str.w	r3, [r7, #200]	; 0xc8
 80004e6:	2300      	movs	r3, #0
 80004e8:	f8c7 30c4 	str.w	r3, [r7, #196]	; 0xc4
 80004ec:	2300      	movs	r3, #0
 80004ee:	f8c7 30c0 	str.w	r3, [r7, #192]	; 0xc0
 80004f2:	2300      	movs	r3, #0
 80004f4:	f8c7 30bc 	str.w	r3, [r7, #188]	; 0xbc
 80004f8:	2300      	movs	r3, #0
 80004fa:	f8c7 30b8 	str.w	r3, [r7, #184]	; 0xb8
 80004fe:	2300      	movs	r3, #0
 8000500:	f8c7 30b4 	str.w	r3, [r7, #180]	; 0xb4
 8000504:	2300      	movs	r3, #0
 8000506:	f8c7 30b0 	str.w	r3, [r7, #176]	; 0xb0
 800050a:	2300      	movs	r3, #0
 800050c:	f8c7 30ac 	str.w	r3, [r7, #172]	; 0xac
 8000510:	2300      	movs	r3, #0
 8000512:	f8c7 30a8 	str.w	r3, [r7, #168]	; 0xa8
 8000516:	2300      	movs	r3, #0
 8000518:	f8c7 30a4 	str.w	r3, [r7, #164]	; 0xa4
 800051c:	2300      	movs	r3, #0
 800051e:	f8c7 30a0 	str.w	r3, [r7, #160]	; 0xa0
 8000522:	2300      	movs	r3, #0
 8000524:	f8c7 309c 	str.w	r3, [r7, #156]	; 0x9c
 8000528:	2300      	movs	r3, #0
 800052a:	f8c7 3098 	str.w	r3, [r7, #152]	; 0x98
 800052e:	2300      	movs	r3, #0
 8000530:	f8c7 3094 	str.w	r3, [r7, #148]	; 0x94
 8000534:	2300      	movs	r3, #0
 8000536:	f8c7 3090 	str.w	r3, [r7, #144]	; 0x90
 800053a:	2300      	movs	r3, #0
 800053c:	f8c7 308c 	str.w	r3, [r7, #140]	; 0x8c
 8000540:	2300      	movs	r3, #0
 8000542:	f8c7 3088 	str.w	r3, [r7, #136]	; 0x88
 8000546:	2300      	movs	r3, #0
 8000548:	f8c7 3084 	str.w	r3, [r7, #132]	; 0x84
 800054c:	2300      	movs	r3, #0
 800054e:	f8c7 3080 	str.w	r3, [r7, #128]	; 0x80
 8000552:	2300      	movs	r3, #0
 8000554:	67fb      	str	r3, [r7, #124]	; 0x7c
 8000556:	2300      	movs	r3, #0
 8000558:	67bb      	str	r3, [r7, #120]	; 0x78
 800055a:	2300      	movs	r3, #0
 800055c:	677b      	str	r3, [r7, #116]	; 0x74
 800055e:	2300      	movs	r3, #0
 8000560:	673b      	str	r3, [r7, #112]	; 0x70
 8000562:	2300      	movs	r3, #0
 8000564:	66fb      	str	r3, [r7, #108]	; 0x6c
 8000566:	2300      	movs	r3, #0
 8000568:	66bb      	str	r3, [r7, #104]	; 0x68
 800056a:	2300      	movs	r3, #0
 800056c:	667b      	str	r3, [r7, #100]	; 0x64
 800056e:	2300      	movs	r3, #0
 8000570:	663b      	str	r3, [r7, #96]	; 0x60
 8000572:	2300      	movs	r3, #0
 8000574:	65fb      	str	r3, [r7, #92]	; 0x5c
 8000576:	2300      	movs	r3, #0
 8000578:	65bb      	str	r3, [r7, #88]	; 0x58
 800057a:	2300      	movs	r3, #0
 800057c:	657b      	str	r3, [r7, #84]	; 0x54
 800057e:	2300      	movs	r3, #0
 8000580:	653b      	str	r3, [r7, #80]	; 0x50
 8000582:	2300      	movs	r3, #0
 8000584:	64fb      	str	r3, [r7, #76]	; 0x4c
 8000586:	2300      	movs	r3, #0
 8000588:	64bb      	str	r3, [r7, #72]	; 0x48
 800058a:	2300      	movs	r3, #0
 800058c:	647b      	str	r3, [r7, #68]	; 0x44
 800058e:	2300      	movs	r3, #0
 8000590:	643b      	str	r3, [r7, #64]	; 0x40
 8000592:	2300      	movs	r3, #0
 8000594:	63fb      	str	r3, [r7, #60]	; 0x3c
 8000596:	2300      	movs	r3, #0
 8000598:	63bb      	str	r3, [r7, #56]	; 0x38
 800059a:	2300      	movs	r3, #0
 800059c:	637b      	str	r3, [r7, #52]	; 0x34
 800059e:	2300      	movs	r3, #0
 80005a0:	633b      	str	r3, [r7, #48]	; 0x30
 80005a2:	2300      	movs	r3, #0
 80005a4:	62fb      	str	r3, [r7, #44]	; 0x2c
 80005a6:	2300      	movs	r3, #0
 80005a8:	62bb      	str	r3, [r7, #40]	; 0x28
 80005aa:	2300      	movs	r3, #0
 80005ac:	627b      	str	r3, [r7, #36]	; 0x24
 80005ae:	2300      	movs	r3, #0
 80005b0:	623b      	str	r3, [r7, #32]
 80005b2:	2300      	movs	r3, #0
 80005b4:	61fb      	str	r3, [r7, #28]
 80005b6:	2300      	movs	r3, #0
 80005b8:	61bb      	str	r3, [r7, #24]
 80005ba:	2300      	movs	r3, #0
 80005bc:	617b      	str	r3, [r7, #20]
 80005be:	2300      	movs	r3, #0
 80005c0:	613b      	str	r3, [r7, #16]
 80005c2:	2300      	movs	r3, #0
 80005c4:	60fb      	str	r3, [r7, #12]
 80005c6:	2300      	movs	r3, #0
 80005c8:	60bb      	str	r3, [r7, #8]
 80005ca:	2300      	movs	r3, #0
 80005cc:	607b      	str	r3, [r7, #4]
 80005ce:	f7ff ff37 	bl	8000440 <main>
 80005d2:	bf00      	nop
 80005d4:	37e0      	adds	r7, #224	; 0xe0
 80005d6:	46bd      	mov	sp, r7
 80005d8:	bd80      	pop	{r7, pc}

080005da <ADC3_IRQHandler>:
 80005da:	b480      	push	{r7}
 80005dc:	b083      	sub	sp, #12
 80005de:	af00      	add	r7, sp, #0
 80005e0:	4b03      	ldr	r3, [pc, #12]	; (80005f0 <ADC3_IRQHandler+0x16>)
 80005e2:	607b      	str	r3, [r7, #4]
 80005e4:	bf00      	nop
 80005e6:	370c      	adds	r7, #12
 80005e8:	46bd      	mov	sp, r7
 80005ea:	bc80      	pop	{r7}
 80005ec:	4770      	bx	lr
 80005ee:	bf00      	nop
 80005f0:	deadbeef 	cdple	14, 10, cr11, cr13, cr15, {7}

080005f4 <TIM15_IRQHandler>:
 80005f4:	b480      	push	{r7}
 80005f6:	af00      	add	r7, sp, #0
 80005f8:	bf00      	nop
 80005fa:	46bd      	mov	sp, r7
 80005fc:	bc80      	pop	{r7}
 80005fe:	4770      	bx	lr
 8000600:	08000b88 	stmdaeq	r0, {r3, r7, r8, r9, fp}
 8000604:	20000000 	andcs	r0, r0, r0
 8000608:	20000434 	andcs	r0, r0, r4, lsr r4
 800060c:	20000434 	andcs	r0, r0, r4, lsr r4
 8000610:	20000474 	andcs	r0, r0, r4, ror r4

08000614 <exit>:
 8000614:	e92d4010 	push	{r4, lr}
 8000618:	e3a01000 	mov	r1, #0
 800061c:	e1a04000 	mov	r4, r0
 8000620:	eb00007b 	bl	8000814 <__call_exitprocs>
 8000624:	e59f3018 	ldr	r3, [pc, #24]	; 8000644 <exit+0x30>
 8000628:	e5930000 	ldr	r0, [r3]
 800062c:	e590303c 	ldr	r3, [r0, #60]	; 0x3c
 8000630:	e3530000 	cmp	r3, #0
 8000634:	11a0e00f 	movne	lr, pc
 8000638:	112fff13 	bxne	r3
 800063c:	e1a00004 	mov	r0, r4
 8000640:	eb00012a 	bl	8000af0 <_exit>
 8000644:	08000b70 	stmdaeq	r0, {r4, r5, r6, r8, r9, fp}

08000648 <__libc_init_array>:
 8000648:	e92d4070 	push	{r4, r5, r6, lr}
 800064c:	e59f606c 	ldr	r6, [pc, #108]	; 80006c0 <__libc_init_array+0x78>
 8000650:	e59f506c 	ldr	r5, [pc, #108]	; 80006c4 <__libc_init_array+0x7c>
 8000654:	e0466005 	sub	r6, r6, r5
 8000658:	e1b06146 	asrs	r6, r6, #2
 800065c:	0a000007 	beq	8000680 <__libc_init_array+0x38>
 8000660:	e3a04000 	mov	r4, #0
 8000664:	e2455004 	sub	r5, r5, #4
 8000668:	e5b53004 	ldr	r3, [r5, #4]!
 800066c:	e2844001 	add	r4, r4, #1
 8000670:	e1a0e00f 	mov	lr, pc
 8000674:	e12fff13 	bx	r3
 8000678:	e1560004 	cmp	r6, r4
 800067c:	1afffff9 	bne	8000668 <__libc_init_array+0x20>
 8000680:	e59f6040 	ldr	r6, [pc, #64]	; 80006c8 <__libc_init_array+0x80>
 8000684:	e59f5040 	ldr	r5, [pc, #64]	; 80006cc <__libc_init_array+0x84>
 8000688:	e0466005 	sub	r6, r6, r5
 800068c:	eb000119 	bl	8000af8 <_init>
 8000690:	e1b06146 	asrs	r6, r6, #2
 8000694:	0a000007 	beq	80006b8 <__libc_init_array+0x70>
 8000698:	e3a04000 	mov	r4, #0
 800069c:	e2455004 	sub	r5, r5, #4
 80006a0:	e5b53004 	ldr	r3, [r5, #4]!
 80006a4:	e2844001 	add	r4, r4, #1
 80006a8:	e1a0e00f 	mov	lr, pc
 80006ac:	e12fff13 	bx	r3
 80006b0:	e1560004 	cmp	r6, r4
 80006b4:	1afffff9 	bne	80006a0 <__libc_init_array+0x58>
 80006b8:	e8bd4070 	pop	{r4, r5, r6, lr}
 80006bc:	e12fff1e 	bx	lr
 80006c0:	08000b7c 	stmdaeq	r0, {r2, r3, r4, r5, r6, r8, r9, fp}
 80006c4:	08000b7c 	stmdaeq	r0, {r2, r3, r4, r5, r6, r8, r9, fp}
 80006c8:	08000b84 	stmdaeq	r0, {r2, r7, r8, r9, fp}
 80006cc:	08000b7c 	stmdaeq	r0, {r2, r3, r4, r5, r6, r8, r9, fp}

080006d0 <memset>:
 80006d0:	e3100003 	tst	r0, #3
 80006d4:	0a000040 	beq	80007dc <memset+0x10c>
 80006d8:	e3520000 	cmp	r2, #0
 80006dc:	e2422001 	sub	r2, r2, #1
 80006e0:	012fff1e 	bxeq	lr
 80006e4:	e1a03000 	mov	r3, r0
 80006e8:	e201c0ff 	and	ip, r1, #255	; 0xff
 80006ec:	ea000002 	b	80006fc <memset+0x2c>
 80006f0:	e2422001 	sub	r2, r2, #1
 80006f4:	e3720001 	cmn	r2, #1
 80006f8:	012fff1e 	bxeq	lr
 80006fc:	e4c3c001 	strb	ip, [r3], #1
 8000700:	e3130003 	tst	r3, #3
 8000704:	1afffff9 	bne	80006f0 <memset+0x20>
 8000708:	e3520003 	cmp	r2, #3
 800070c:	9a000028 	bls	80007b4 <memset+0xe4>
 8000710:	e92d4030 	push	{r4, r5, lr}
 8000714:	e201e0ff 	and	lr, r1, #255	; 0xff
 8000718:	e18ee40e 	orr	lr, lr, lr, lsl #8
 800071c:	e352000f 	cmp	r2, #15
 8000720:	e18ee80e 	orr	lr, lr, lr, lsl #16
 8000724:	9a00002e 	bls	80007e4 <memset+0x114>
 8000728:	e242c010 	sub	ip, r2, #16
 800072c:	e3cc400f 	bic	r4, ip, #15
 8000730:	e2835020 	add	r5, r3, #32
 8000734:	e0855004 	add	r5, r5, r4
 8000738:	e1a0422c 	lsr	r4, ip, #4
 800073c:	e283c010 	add	ip, r3, #16
 8000740:	e50ce010 	str	lr, [ip, #-16]
 8000744:	e50ce00c 	str	lr, [ip, #-12]
 8000748:	e50ce008 	str	lr, [ip, #-8]
 800074c:	e50ce004 	str	lr, [ip, #-4]
 8000750:	e28cc010 	add	ip, ip, #16
 8000754:	e15c0005 	cmp	ip, r5
 8000758:	1afffff8 	bne	8000740 <memset+0x70>
 800075c:	e284c001 	add	ip, r4, #1
 8000760:	e312000c 	tst	r2, #12
 8000764:	e083c20c 	add	ip, r3, ip, lsl #4
 8000768:	e202200f 	and	r2, r2, #15
 800076c:	0a000018 	beq	80007d4 <memset+0x104>
 8000770:	e2423004 	sub	r3, r2, #4
 8000774:	e3c33003 	bic	r3, r3, #3
 8000778:	e2833004 	add	r3, r3, #4
 800077c:	e08c3003 	add	r3, ip, r3
 8000780:	e48ce004 	str	lr, [ip], #4
 8000784:	e153000c 	cmp	r3, ip
 8000788:	1afffffc 	bne	8000780 <memset+0xb0>
 800078c:	e2022003 	and	r2, r2, #3
 8000790:	e3520000 	cmp	r2, #0
 8000794:	0a000004 	beq	80007ac <memset+0xdc>
 8000798:	e20110ff 	and	r1, r1, #255	; 0xff
 800079c:	e0832002 	add	r2, r3, r2
 80007a0:	e4c31001 	strb	r1, [r3], #1
 80007a4:	e1520003 	cmp	r2, r3
 80007a8:	1afffffc 	bne	80007a0 <memset+0xd0>
 80007ac:	e8bd4030 	pop	{r4, r5, lr}
 80007b0:	e12fff1e 	bx	lr
 80007b4:	e3520000 	cmp	r2, #0
 80007b8:	012fff1e 	bxeq	lr
 80007bc:	e20110ff 	and	r1, r1, #255	; 0xff
 80007c0:	e0832002 	add	r2, r3, r2
 80007c4:	e4c31001 	strb	r1, [r3], #1
 80007c8:	e1520003 	cmp	r2, r3
 80007cc:	1afffffc 	bne	80007c4 <memset+0xf4>
 80007d0:	e12fff1e 	bx	lr
 80007d4:	e1a0300c 	mov	r3, ip
 80007d8:	eaffffec 	b	8000790 <memset+0xc0>
 80007dc:	e1a03000 	mov	r3, r0
 80007e0:	eaffffc8 	b	8000708 <memset+0x38>
 80007e4:	e1a0c003 	mov	ip, r3
 80007e8:	eaffffe0 	b	8000770 <memset+0xa0>

080007ec <register_fini>:
 80007ec:	e59f3018 	ldr	r3, [pc, #24]	; 800080c <register_fini+0x20>
 80007f0:	e3530000 	cmp	r3, #0
 80007f4:	012fff1e 	bxeq	lr
 80007f8:	e92d4010 	push	{r4, lr}
 80007fc:	e59f000c 	ldr	r0, [pc, #12]	; 8000810 <register_fini+0x24>
 8000800:	eb000051 	bl	800094c <atexit>
 8000804:	e8bd4010 	pop	{r4, lr}
 8000808:	e12fff1e 	bx	lr
 800080c:	00000000 	andeq	r0, r0, r0
 8000810:	0800096c 	stmdaeq	r0, {r2, r3, r5, r6, r8, fp}

08000814 <__call_exitprocs>:
 8000814:	e92d4ff0 	push	{r4, r5, r6, r7, r8, r9, sl, fp, lr}
 8000818:	e1a0b000 	mov	fp, r0
 800081c:	e59f3120 	ldr	r3, [pc, #288]	; 8000944 <__call_exitprocs+0x130>
 8000820:	e24dd00c 	sub	sp, sp, #12
 8000824:	e5930000 	ldr	r0, [r3]
 8000828:	e1a07001 	mov	r7, r1
 800082c:	e58db004 	str	fp, [sp, #4]
 8000830:	eb000063 	bl	80009c4 <__retarget_lock_acquire_recursive>
 8000834:	e59f310c 	ldr	r3, [pc, #268]	; 8000948 <__call_exitprocs+0x134>
 8000838:	e5938000 	ldr	r8, [r3]
 800083c:	e5986148 	ldr	r6, [r8, #328]	; 0x148
 8000840:	e3560000 	cmp	r6, #0
 8000844:	0a000028 	beq	80008ec <__call_exitprocs+0xd8>
 8000848:	e3a09001 	mov	r9, #1
 800084c:	e3a0a000 	mov	sl, #0
 8000850:	e5964004 	ldr	r4, [r6, #4]
 8000854:	e2545001 	subs	r5, r4, #1
 8000858:	4a000023 	bmi	80008ec <__call_exitprocs+0xd8>
 800085c:	e2844001 	add	r4, r4, #1
 8000860:	e0864104 	add	r4, r6, r4, lsl #2
 8000864:	ea000003 	b	8000878 <__call_exitprocs+0x64>
 8000868:	e2455001 	sub	r5, r5, #1
 800086c:	e3750001 	cmn	r5, #1
 8000870:	e2444004 	sub	r4, r4, #4
 8000874:	0a00001c 	beq	80008ec <__call_exitprocs+0xd8>
 8000878:	e3570000 	cmp	r7, #0
 800087c:	0a000002 	beq	800088c <__call_exitprocs+0x78>
 8000880:	e5943100 	ldr	r3, [r4, #256]	; 0x100
 8000884:	e1530007 	cmp	r3, r7
 8000888:	1afffff6 	bne	8000868 <__call_exitprocs+0x54>
 800088c:	e5963004 	ldr	r3, [r6, #4]
 8000890:	e5942000 	ldr	r2, [r4]
 8000894:	e2433001 	sub	r3, r3, #1
 8000898:	e1530005 	cmp	r3, r5
 800089c:	05865004 	streq	r5, [r6, #4]
 80008a0:	1584a000 	strne	sl, [r4]
 80008a4:	e3520000 	cmp	r2, #0
 80008a8:	0affffee 	beq	8000868 <__call_exitprocs+0x54>
 80008ac:	e5963188 	ldr	r3, [r6, #392]	; 0x188
 80008b0:	e1a01519 	lsl	r1, r9, r5
 80008b4:	e1110003 	tst	r1, r3
 80008b8:	e596b004 	ldr	fp, [r6, #4]
 80008bc:	1a000010 	bne	8000904 <__call_exitprocs+0xf0>
 80008c0:	e1a0e00f 	mov	lr, pc
 80008c4:	e12fff12 	bx	r2
 80008c8:	e5962004 	ldr	r2, [r6, #4]
 80008cc:	e152000b 	cmp	r2, fp
 80008d0:	1a000015 	bne	800092c <__call_exitprocs+0x118>
 80008d4:	e5983148 	ldr	r3, [r8, #328]	; 0x148
 80008d8:	e1530006 	cmp	r3, r6
 80008dc:	0affffe1 	beq	8000868 <__call_exitprocs+0x54>
 80008e0:	e1a06003 	mov	r6, r3
 80008e4:	e3560000 	cmp	r6, #0
 80008e8:	1affffd8 	bne	8000850 <__call_exitprocs+0x3c>
 80008ec:	e59f3050 	ldr	r3, [pc, #80]	; 8000944 <__call_exitprocs+0x130>
 80008f0:	e5930000 	ldr	r0, [r3]
 80008f4:	eb000038 	bl	80009dc <__retarget_lock_release_recursive>
 80008f8:	e28dd00c 	add	sp, sp, #12
 80008fc:	e8bd4ff0 	pop	{r4, r5, r6, r7, r8, r9, sl, fp, lr}
 8000900:	e12fff1e 	bx	lr
 8000904:	e596018c 	ldr	r0, [r6, #396]	; 0x18c
 8000908:	e1110000 	tst	r1, r0
 800090c:	1a000008 	bne	8000934 <__call_exitprocs+0x120>
 8000910:	e59d0004 	ldr	r0, [sp, #4]
 8000914:	e5941080 	ldr	r1, [r4, #128]	; 0x80
 8000918:	e1a0e00f 	mov	lr, pc
 800091c:	e12fff12 	bx	r2
 8000920:	e5962004 	ldr	r2, [r6, #4]
 8000924:	e152000b 	cmp	r2, fp
 8000928:	0affffe9 	beq	80008d4 <__call_exitprocs+0xc0>
 800092c:	e5986148 	ldr	r6, [r8, #328]	; 0x148
 8000930:	eaffffeb 	b	80008e4 <__call_exitprocs+0xd0>
 8000934:	e5940080 	ldr	r0, [r4, #128]	; 0x80
 8000938:	e1a0e00f 	mov	lr, pc
 800093c:	e12fff12 	bx	r2
 8000940:	eaffffe0 	b	80008c8 <__call_exitprocs+0xb4>
 8000944:	20000430 	andcs	r0, r0, r0, lsr r4
 8000948:	08000b70 	stmdaeq	r0, {r4, r5, r6, r8, r9, fp}

0800094c <atexit>:
 800094c:	e3a03000 	mov	r3, #0
 8000950:	e92d4010 	push	{r4, lr}
 8000954:	e1a01000 	mov	r1, r0
 8000958:	e1a02003 	mov	r2, r3
 800095c:	e1a00003 	mov	r0, r3
 8000960:	eb00001e 	bl	80009e0 <__register_exitproc>
 8000964:	e8bd4010 	pop	{r4, lr}
 8000968:	e12fff1e 	bx	lr

0800096c <__libc_fini_array>:
 800096c:	e92d4070 	push	{r4, r5, r6, lr}
 8000970:	e59f5030 	ldr	r5, [pc, #48]	; 80009a8 <__libc_fini_array+0x3c>
 8000974:	e59f4030 	ldr	r4, [pc, #48]	; 80009ac <__libc_fini_array+0x40>
 8000978:	e0454004 	sub	r4, r5, r4
 800097c:	e1b04144 	asrs	r4, r4, #2
 8000980:	0a000005 	beq	800099c <__libc_fini_array+0x30>
 8000984:	e5353004 	ldr	r3, [r5, #-4]!
 8000988:	e2444001 	sub	r4, r4, #1
 800098c:	e1a0e00f 	mov	lr, pc
 8000990:	e12fff13 	bx	r3
 8000994:	e3540000 	cmp	r4, #0
 8000998:	1afffff9 	bne	8000984 <__libc_fini_array+0x18>
 800099c:	eb00005b 	bl	8000b10 <_fini>
 80009a0:	e8bd4070 	pop	{r4, r5, r6, lr}
 80009a4:	e12fff1e 	bx	lr
 80009a8:	08000b88 	stmdaeq	r0, {r3, r7, r8, r9, fp}
 80009ac:	08000b84 	stmdaeq	r0, {r2, r7, r8, r9, fp}

080009b0 <__retarget_lock_init>:
 80009b0:	e12fff1e 	bx	lr

080009b4 <__retarget_lock_init_recursive>:
 80009b4:	e12fff1e 	bx	lr

080009b8 <__retarget_lock_close>:
 80009b8:	e12fff1e 	bx	lr

080009bc <__retarget_lock_close_recursive>:
 80009bc:	e12fff1e 	bx	lr

080009c0 <__retarget_lock_acquire>:
 80009c0:	e12fff1e 	bx	lr

080009c4 <__retarget_lock_acquire_recursive>:
 80009c4:	e12fff1e 	bx	lr

080009c8 <__retarget_lock_try_acquire>:
 80009c8:	e3a00001 	mov	r0, #1
 80009cc:	e12fff1e 	bx	lr

080009d0 <__retarget_lock_try_acquire_recursive>:
 80009d0:	e3a00001 	mov	r0, #1
 80009d4:	e12fff1e 	bx	lr

080009d8 <__retarget_lock_release>:
 80009d8:	e12fff1e 	bx	lr

080009dc <__retarget_lock_release_recursive>:
 80009dc:	e12fff1e 	bx	lr

080009e0 <__register_exitproc>:
 80009e0:	e92d41f0 	push	{r4, r5, r6, r7, r8, lr}
 80009e4:	e59f80a8 	ldr	r8, [pc, #168]	; 8000a94 <__register_exitproc+0xb4>
 80009e8:	e1a04000 	mov	r4, r0
 80009ec:	e5980000 	ldr	r0, [r8]
 80009f0:	e1a06003 	mov	r6, r3
 80009f4:	e1a05001 	mov	r5, r1
 80009f8:	e1a07002 	mov	r7, r2
 80009fc:	ebfffff0 	bl	80009c4 <__retarget_lock_acquire_recursive>
 8000a00:	e59f3090 	ldr	r3, [pc, #144]	; 8000a98 <__register_exitproc+0xb8>
 8000a04:	e5933000 	ldr	r3, [r3]
 8000a08:	e593c148 	ldr	ip, [r3, #328]	; 0x148
 8000a0c:	e35c0000 	cmp	ip, #0
 8000a10:	0283cf53 	addeq	ip, r3, #332	; 0x14c
 8000a14:	e59ce004 	ldr	lr, [ip, #4]
 8000a18:	0583c148 	streq	ip, [r3, #328]	; 0x148
 8000a1c:	e35e001f 	cmp	lr, #31
 8000a20:	ca000017 	bgt	8000a84 <__register_exitproc+0xa4>
 8000a24:	e3540000 	cmp	r4, #0
 8000a28:	1a000008 	bne	8000a50 <__register_exitproc+0x70>
 8000a2c:	e28e3001 	add	r3, lr, #1
 8000a30:	e28ee002 	add	lr, lr, #2
 8000a34:	e58c3004 	str	r3, [ip, #4]
 8000a38:	e5980000 	ldr	r0, [r8]
 8000a3c:	e78c510e 	str	r5, [ip, lr, lsl #2]
 8000a40:	ebffffe5 	bl	80009dc <__retarget_lock_release_recursive>
 8000a44:	e3a00000 	mov	r0, #0
 8000a48:	e8bd41f0 	pop	{r4, r5, r6, r7, r8, lr}
 8000a4c:	e12fff1e 	bx	lr
 8000a50:	e3a03001 	mov	r3, #1
 8000a54:	e08c110e 	add	r1, ip, lr, lsl #2
 8000a58:	e5817088 	str	r7, [r1, #136]	; 0x88
 8000a5c:	e59c2188 	ldr	r2, [ip, #392]	; 0x188
 8000a60:	e1a03e13 	lsl	r3, r3, lr
 8000a64:	e1822003 	orr	r2, r2, r3
 8000a68:	e58c2188 	str	r2, [ip, #392]	; 0x188
 8000a6c:	e5816108 	str	r6, [r1, #264]	; 0x108
 8000a70:	e3540002 	cmp	r4, #2
 8000a74:	059c218c 	ldreq	r2, [ip, #396]	; 0x18c
 8000a78:	01823003 	orreq	r3, r2, r3
 8000a7c:	058c318c 	streq	r3, [ip, #396]	; 0x18c
 8000a80:	eaffffe9 	b	8000a2c <__register_exitproc+0x4c>
 8000a84:	e5980000 	ldr	r0, [r8]
 8000a88:	ebffffd3 	bl	80009dc <__retarget_lock_release_recursive>
 8000a8c:	e3e00000 	mvn	r0, #0
 8000a90:	eaffffec 	b	8000a48 <__register_exitproc+0x68>
 8000a94:	20000430 	andcs	r0, r0, r0, lsr r4
 8000a98:	08000b70 	stmdaeq	r0, {r4, r5, r6, r8, r9, fp}

08000a9c <Reset_Handler>:
 8000a9c:	f8df d034 	ldr.w	sp, [pc, #52]	; 8000ad4 <LoopFillZerobss+0xe>
 8000aa0:	f7ff fd0c 	bl	80004bc <SystemInit>
 8000aa4:	480c      	ldr	r0, [pc, #48]	; (8000ad8 <LoopFillZerobss+0x12>)
 8000aa6:	490d      	ldr	r1, [pc, #52]	; (8000adc <LoopFillZerobss+0x16>)
 8000aa8:	4a0d      	ldr	r2, [pc, #52]	; (8000ae0 <LoopFillZerobss+0x1a>)
 8000aaa:	2300      	movs	r3, #0
 8000aac:	e002      	b.n	8000ab4 <LoopCopyDataInit>

08000aae <CopyDataInit>:
 8000aae:	58d4      	ldr	r4, [r2, r3]
 8000ab0:	50c4      	str	r4, [r0, r3]
 8000ab2:	3304      	adds	r3, #4

08000ab4 <LoopCopyDataInit>:
 8000ab4:	18c4      	adds	r4, r0, r3
 8000ab6:	428c      	cmp	r4, r1
 8000ab8:	d3f9      	bcc.n	8000aae <CopyDataInit>
 8000aba:	4a0a      	ldr	r2, [pc, #40]	; (8000ae4 <LoopFillZerobss+0x1e>)
 8000abc:	4c0a      	ldr	r4, [pc, #40]	; (8000ae8 <LoopFillZerobss+0x22>)
 8000abe:	2300      	movs	r3, #0
 8000ac0:	e001      	b.n	8000ac6 <LoopFillZerobss>

08000ac2 <FillZerobss>:
 8000ac2:	6013      	str	r3, [r2, #0]
 8000ac4:	3204      	adds	r2, #4

08000ac6 <LoopFillZerobss>:
 8000ac6:	42a2      	cmp	r2, r4
 8000ac8:	d3fb      	bcc.n	8000ac2 <FillZerobss>
 8000aca:	f7ff fdbd 	bl	8000648 <__libc_init_array>
 8000ace:	f7ff fcb7 	bl	8000440 <main>
 8000ad2:	4770      	bx	lr
 8000ad4:	20020000 	andcs	r0, r2, r0
 8000ad8:	20000000 	andcs	r0, r0, r0
 8000adc:	20000434 	andcs	r0, r0, r4, lsr r4
 8000ae0:	08000b88 	stmdaeq	r0, {r3, r7, r8, r9, fp}
 8000ae4:	20000434 	andcs	r0, r0, r4, lsr r4
 8000ae8:	20000474 	andcs	r0, r0, r4, ror r4

08000aec <ADC_IRQHandler>:
 8000aec:	e7fe      	b.n	8000aec <ADC_IRQHandler>
	...

08000af0 <_exit>:
 8000af0:	eafffffe 	b	8000af0 <_exit>

08000af4 <__EH_FRAME_BEGIN__>:
 8000af4:	00000000 	andeq	r0, r0, r0

08000af8 <_init>:
 8000af8:	e1a0c00d 	mov	ip, sp
 8000afc:	e92ddff8 	push	{r3, r4, r5, r6, r7, r8, r9, sl, fp, ip, lr, pc}
 8000b00:	e24cb004 	sub	fp, ip, #4
 8000b04:	e24bd028 	sub	sp, fp, #40	; 0x28
 8000b08:	e89d6ff0 	ldm	sp, {r4, r5, r6, r7, r8, r9, sl, fp, sp, lr}
 8000b0c:	e12fff1e 	bx	lr

08000b10 <_fini>:
 8000b10:	e1a0c00d 	mov	ip, sp
 8000b14:	e92ddff8 	push	{r3, r4, r5, r6, r7, r8, r9, sl, fp, ip, lr, pc}
 8000b18:	e24cb004 	sub	fp, ip, #4
 8000b1c:	e24bd028 	sub	sp, fp, #40	; 0x28
 8000b20:	e89d6ff0 	ldm	sp, {r4, r5, r6, r7, r8, r9, sl, fp, sp, lr}
 8000b24:	e12fff1e 	bx	lr

Disassembly of section .rodata:

08000b28 <all_implied_fbits>:
 8000b28:	3e0b3e3b 	mcrcc	14, 0, r3, cr11, cr11, {1}
 8000b2c:	3e253e10 	mcrcc	14, 1, r3, cr5, cr0, {0}
 8000b30:	3e033e33 	mcrcc	14, 0, r3, cr3, cr3, {1}
 8000b34:	3e143e06 	cdpcc	14, 1, cr3, cr4, cr6, {0}
 8000b38:	3e0d3e0e 	cdpcc	14, 0, cr3, cr13, cr14, {0}
 8000b3c:	3e123e24 	cdpcc	14, 1, cr3, cr2, cr4, {1}
 8000b40:	3e023e27 	cdpcc	14, 0, cr3, cr2, cr7, {1}
 8000b44:	3e093e18 	mcrcc	14, 0, r3, cr9, cr8, {0}
 8000b48:	00003e0a 	andeq	r3, r0, sl, lsl #28

08000b4c <all_implied_fbits>:
 8000b4c:	3e0b3e3b 	mcrcc	14, 0, r3, cr11, cr11, {1}
 8000b50:	3e253e10 	mcrcc	14, 1, r3, cr5, cr0, {0}
 8000b54:	3e033e33 	mcrcc	14, 0, r3, cr3, cr3, {1}
 8000b58:	3e143e06 	cdpcc	14, 1, cr3, cr4, cr6, {0}
 8000b5c:	3e0d3e0e 	cdpcc	14, 0, cr3, cr13, cr14, {0}
 8000b60:	3e123e24 	cdpcc	14, 1, cr3, cr2, cr4, {1}
 8000b64:	3e023e27 	cdpcc	14, 0, cr3, cr2, cr7, {1}
 8000b68:	3e093e18 	mcrcc	14, 0, r3, cr9, cr8, {0}
 8000b6c:	00003e0a 	andeq	r3, r0, sl, lsl #28

08000b70 <_global_impure_ptr>:
 8000b70:	20000008 	andcs	r0, r0, r8

Disassembly of section .ARM:

08000b74 <__exidx_start>:
 8000b74:	7ffff794 	svcvc	0x00fff794
 8000b78:	00000001 	andeq	r0, r0, r1

Disassembly of section .init_array:

08000b7c <__init_array_start>:
 8000b7c:	080007ec 	stmdaeq	r0, {r2, r3, r5, r6, r7, r8, r9, sl}

08000b80 <__frame_dummy_init_array_entry>:
 8000b80:	080002d8 	stmdaeq	r0, {r3, r4, r6, r7, r9}

Disassembly of section .fini_array:

08000b84 <__do_global_dtors_aux_fini_array_entry>:
 8000b84:	08000298 	stmdaeq	r0, {r3, r4, r7, r9}

Disassembly of section .data:

20000000 <__dso_handle>:
20000000:	00000000 	andeq	r0, r0, r0

20000004 <_impure_ptr>:
20000004:	20000008 	andcs	r0, r0, r8

20000008 <impure_data>:
20000008:	00000000 	andeq	r0, r0, r0
2000000c:	200002f4 	strdcs	r0, [r0], -r4
20000010:	2000035c 	andcs	r0, r0, ip, asr r3
20000014:	200003c4 	andcs	r0, r0, r4, asr #7
	...
200000b0:	00000001 	andeq	r0, r0, r1
200000b4:	00000000 	andeq	r0, r0, r0
200000b8:	abcd330e 	blge	1f34ccf8 <_sidata+0x1734c170>
200000bc:	e66d1234 			; <UNDEFINED> instruction: 0xe66d1234
200000c0:	0005deec 	andeq	sp, r5, ip, ror #29
200000c4:	0000000b 	andeq	r0, r0, fp
	...

20000430 <__atexit_recursive_mutex>:
20000430:	20000458 	andcs	r0, r0, r8, asr r4

Disassembly of section .bss:

20000434 <__bss_start__>:
20000434:	00000000 	andeq	r0, r0, r0

20000438 <object.0>:
	...

20000450 <__lock___arc4random_mutex>:
20000450:	00000000 	andeq	r0, r0, r0

20000454 <__lock___at_quick_exit_mutex>:
20000454:	00000000 	andeq	r0, r0, r0

20000458 <__lock___atexit_recursive_mutex>:
20000458:	00000000 	andeq	r0, r0, r0

2000045c <__lock___dd_hash_mutex>:
2000045c:	00000000 	andeq	r0, r0, r0

20000460 <__lock___env_recursive_mutex>:
20000460:	00000000 	andeq	r0, r0, r0

20000464 <__lock___malloc_recursive_mutex>:
20000464:	00000000 	andeq	r0, r0, r0

20000468 <__lock___sfp_recursive_mutex>:
20000468:	00000000 	andeq	r0, r0, r0

2000046c <__lock___sinit_recursive_mutex>:
2000046c:	00000000 	andeq	r0, r0, r0

20000470 <__lock___tz_mutex>:
20000470:	00000000 	andeq	r0, r0, r0

Disassembly of section ._user_heap_stack:

20000474 <._user_heap_stack>:
	...

Disassembly of section .ARM.attributes:

00000000 <.ARM.attributes>:
   0:	00002b41 	andeq	r2, r0, r1, asr #22
   4:	61656100 	cmnvs	r5, r0, lsl #2
   8:	01006962 	tsteq	r0, r2, ror #18
   c:	00000021 	andeq	r0, r0, r1, lsr #32
  10:	2d453705 	stclcs	7, cr3, [r5, #-20]	; 0xffffffec
  14:	0d06004d 	stceq	0, cr0, [r6, #-308]	; 0xfffffecc
  18:	01084d07 	tsteq	r8, r7, lsl #26
  1c:	04120209 	ldreq	r0, [r2], #-521	; 0xfffffdf7
  20:	01150114 	tsteq	r5, r4, lsl r1
  24:	01180317 	tsteq	r8, r7, lsl r3
  28:	0122011a 			; <UNDEFINED> instruction: 0x0122011a

Disassembly of section .debug_frame:

00000000 <.debug_frame>:
   0:	0000000c 	andeq	r0, r0, ip
   4:	ffffffff 			; <UNDEFINED> instruction: 0xffffffff
   8:	7c020001 	stcvc	0, cr0, [r2], {1}
   c:	000d0c0e 	andeq	r0, sp, lr, lsl #24
  10:	00000014 	andeq	r0, r0, r4, lsl r0
  14:	00000000 	andeq	r0, r0, r0
  18:	08000614 	stmdaeq	r0, {r2, r4, r9, sl}
  1c:	00000034 	andeq	r0, r0, r4, lsr r0
  20:	84080e42 	strhi	r0, [r8], #-3650	; 0xfffff1be
  24:	00018e02 	andeq	r8, r1, r2, lsl #28
  28:	0000000c 	andeq	r0, r0, ip
  2c:	ffffffff 			; <UNDEFINED> instruction: 0xffffffff
  30:	7c020001 	stcvc	0, cr0, [r2], {1}
  34:	000d0c0e 	andeq	r0, sp, lr, lsl #24
  38:	00000020 	andeq	r0, r0, r0, lsr #32
  3c:	00000028 	andeq	r0, r0, r8, lsr #32
  40:	08000648 	stmdaeq	r0, {r3, r6, r9, sl}
  44:	00000088 	andeq	r0, r0, r8, lsl #1
  48:	84100e42 	ldrhi	r0, [r0], #-3650	; 0xfffff1be
  4c:	86038504 	strhi	r8, [r3], -r4, lsl #10
  50:	78018e02 	stmdavc	r1, {r1, r9, sl, fp, pc}
  54:	c4c5c6ce 	strbgt	ip, [r5], #1742	; 0x6ce
  58:	0000000e 	andeq	r0, r0, lr
  5c:	0000000c 	andeq	r0, r0, ip
  60:	ffffffff 			; <UNDEFINED> instruction: 0xffffffff
  64:	7c020001 	stcvc	0, cr0, [r2], {1}
  68:	000d0c0e 	andeq	r0, sp, lr, lsl #24
  6c:	00000034 	andeq	r0, r0, r4, lsr r0
  70:	0000005c 	andeq	r0, r0, ip, asr r0
  74:	080006d0 	stmdaeq	r0, {r4, r6, r7, r9, sl}
  78:	0000011c 	andeq	r0, r0, ip, lsl r1
  7c:	840c0e62 	strhi	r0, [ip], #-3682	; 0xfffff19e
  80:	8e028503 	cfsh32hi	mvfx8, mvfx2, #3
  84:	ce4e0201 	cdpgt	2, 4, cr0, cr14, cr1, {0}
  88:	000ec4c5 	andeq	ip, lr, r5, asr #9
  8c:	840c0e52 	strhi	r0, [ip], #-3666	; 0xfffff1ae
  90:	8e028503 	cfsh32hi	mvfx8, mvfx2, #3
  94:	000e4401 	andeq	r4, lr, r1, lsl #8
  98:	44cec5c4 	strbmi	ip, [lr], #1476	; 0x5c4
  9c:	03840c0e 	orreq	r0, r4, #3584	; 0xe00
  a0:	018e0285 	orreq	r0, lr, r5, lsl #5
  a4:	0000000c 	andeq	r0, r0, ip
  a8:	ffffffff 			; <UNDEFINED> instruction: 0xffffffff
  ac:	7c020001 	stcvc	0, cr0, [r2], {1}
  b0:	000d0c0e 	andeq	r0, sp, lr, lsl #24
  b4:	00000018 	andeq	r0, r0, r8, lsl r0
  b8:	000000a4 	andeq	r0, r0, r4, lsr #1
  bc:	080007ec 	stmdaeq	r0, {r2, r3, r5, r6, r7, r8, r9, sl}
  c0:	00000028 	andeq	r0, r0, r8, lsr #32
  c4:	84080e48 	strhi	r0, [r8], #-3656	; 0xfffff1b8
  c8:	46018e02 	strmi	r8, [r1], -r2, lsl #28
  cc:	000ec4ce 	andeq	ip, lr, lr, asr #9
  d0:	00000038 	andeq	r0, r0, r8, lsr r0
  d4:	000000a4 	andeq	r0, r0, r4, lsr #1
  d8:	08000814 	stmdaeq	r0, {r2, r4, fp}
  dc:	00000138 	andeq	r0, r0, r8, lsr r1
  e0:	84240e42 	strthi	r0, [r4], #-3650	; 0xfffff1be
  e4:	86088509 	strhi	r8, [r8], -r9, lsl #10
  e8:	88068707 	stmdahi	r6, {r0, r1, r2, r8, r9, sl, pc}
  ec:	8a048905 	bhi	122508 <_Min_Stack_Size+0x122108>
  f0:	8e028b03 	vmlahi.f64	d8, d2, d3
  f4:	300e4601 	andcc	r4, lr, r1, lsl #12
  f8:	0e0a6c02 	cdpeq	12, 0, cr6, cr10, cr2, {0}
  fc:	cbce4224 	blgt	ff390994 <_estack+0xdf370994>
 100:	c7c8c9ca 	strbgt	ip, [r8, sl, asr #19]
 104:	0ec4c5c6 	cdpeq	5, 12, cr12, cr4, cr6, {6}
 108:	000b4200 	andeq	r4, fp, r0, lsl #4
 10c:	0000000c 	andeq	r0, r0, ip
 110:	ffffffff 			; <UNDEFINED> instruction: 0xffffffff
 114:	7c020001 	stcvc	0, cr0, [r2], {1}
 118:	000d0c0e 	andeq	r0, sp, lr, lsl #24
 11c:	00000018 	andeq	r0, r0, r8, lsl r0
 120:	0000010c 	andeq	r0, r0, ip, lsl #2
 124:	0800094c 	stmdaeq	r0, {r2, r3, r6, r8, fp}
 128:	00000020 	andeq	r0, r0, r0, lsr #32
 12c:	84080e44 	strhi	r0, [r8], #-3652	; 0xfffff1bc
 130:	4a018e02 	bmi	63940 <_Min_Stack_Size+0x63540>
 134:	000ec4ce 	andeq	ip, lr, lr, asr #9
 138:	0000000c 	andeq	r0, r0, ip
 13c:	ffffffff 			; <UNDEFINED> instruction: 0xffffffff
 140:	7c020001 	stcvc	0, cr0, [r2], {1}
 144:	000d0c0e 	andeq	r0, sp, lr, lsl #24
 148:	00000020 	andeq	r0, r0, r0, lsr #32
 14c:	00000138 	andeq	r0, r0, r8, lsr r1
 150:	0800096c 	stmdaeq	r0, {r2, r3, r5, r6, r8, fp}
 154:	00000044 	andeq	r0, r0, r4, asr #32
 158:	84100e42 	ldrhi	r0, [r0], #-3650	; 0xfffff1be
 15c:	86038504 	strhi	r8, [r3], -r4, lsl #10
 160:	5a018e02 	bpl	63970 <_Min_Stack_Size+0x63570>
 164:	c4c5c6ce 	strbgt	ip, [r5], #1742	; 0x6ce
 168:	0000000e 	andeq	r0, r0, lr
 16c:	0000000c 	andeq	r0, r0, ip
 170:	ffffffff 			; <UNDEFINED> instruction: 0xffffffff
 174:	7c020001 	stcvc	0, cr0, [r2], {1}
 178:	000d0c0e 	andeq	r0, sp, lr, lsl #24
 17c:	0000000c 	andeq	r0, r0, ip
 180:	0000016c 	andeq	r0, r0, ip, ror #2
 184:	080009b0 	stmdaeq	r0, {r4, r5, r7, r8, fp}
 188:	00000004 	andeq	r0, r0, r4
 18c:	0000000c 	andeq	r0, r0, ip
 190:	0000016c 	andeq	r0, r0, ip, ror #2
 194:	080009b4 	stmdaeq	r0, {r2, r4, r5, r7, r8, fp}
 198:	00000004 	andeq	r0, r0, r4
 19c:	0000000c 	andeq	r0, r0, ip
 1a0:	0000016c 	andeq	r0, r0, ip, ror #2
 1a4:	080009b8 	stmdaeq	r0, {r3, r4, r5, r7, r8, fp}
 1a8:	00000004 	andeq	r0, r0, r4
 1ac:	0000000c 	andeq	r0, r0, ip
 1b0:	0000016c 	andeq	r0, r0, ip, ror #2
 1b4:	080009bc 	stmdaeq	r0, {r2, r3, r4, r5, r7, r8, fp}
 1b8:	00000004 	andeq	r0, r0, r4
 1bc:	0000000c 	andeq	r0, r0, ip
 1c0:	0000016c 	andeq	r0, r0, ip, ror #2
 1c4:	080009c0 	stmdaeq	r0, {r6, r7, r8, fp}
 1c8:	00000004 	andeq	r0, r0, r4
 1cc:	0000000c 	andeq	r0, r0, ip
 1d0:	0000016c 	andeq	r0, r0, ip, ror #2
 1d4:	080009c4 	stmdaeq	r0, {r2, r6, r7, r8, fp}
 1d8:	00000004 	andeq	r0, r0, r4
 1dc:	0000000c 	andeq	r0, r0, ip
 1e0:	0000016c 	andeq	r0, r0, ip, ror #2
 1e4:	080009c8 	stmdaeq	r0, {r3, r6, r7, r8, fp}
 1e8:	00000008 	andeq	r0, r0, r8
 1ec:	0000000c 	andeq	r0, r0, ip
 1f0:	0000016c 	andeq	r0, r0, ip, ror #2
 1f4:	080009d0 	stmdaeq	r0, {r4, r6, r7, r8, fp}
 1f8:	00000008 	andeq	r0, r0, r8
 1fc:	0000000c 	andeq	r0, r0, ip
 200:	0000016c 	andeq	r0, r0, ip, ror #2
 204:	080009d8 	stmdaeq	r0, {r3, r4, r6, r7, r8, fp}
 208:	00000004 	andeq	r0, r0, r4
 20c:	0000000c 	andeq	r0, r0, ip
 210:	0000016c 	andeq	r0, r0, ip, ror #2
 214:	080009dc 	stmdaeq	r0, {r2, r3, r4, r6, r7, r8, fp}
 218:	00000004 	andeq	r0, r0, r4
 21c:	0000000c 	andeq	r0, r0, ip
 220:	ffffffff 			; <UNDEFINED> instruction: 0xffffffff
 224:	7c020001 	stcvc	0, cr0, [r2], {1}
 228:	000d0c0e 	andeq	r0, sp, lr, lsl #24
 22c:	00000028 	andeq	r0, r0, r8, lsr #32
 230:	0000021c 	andeq	r0, r0, ip, lsl r2
 234:	080009e0 	stmdaeq	r0, {r5, r6, r7, r8, fp}
 238:	000000bc 	strheq	r0, [r0], -ip
 23c:	84180e42 	ldrhi	r0, [r8], #-3650	; 0xfffff1be
 240:	86058506 	strhi	r8, [r5], -r6, lsl #10
 244:	88038704 	stmdahi	r3, {r2, r8, r9, sl, pc}
 248:	74018e02 	strvc	r8, [r1], #-3586	; 0xfffff1fe
 24c:	c7c8ce0a 	strbgt	ip, [r8, sl, lsl #28]
 250:	0ec4c5c6 	cdpeq	5, 12, cr12, cr4, cr6, {6}
 254:	000b4200 	andeq	r4, fp, r0, lsl #4
 258:	0000000c 	andeq	r0, r0, ip
 25c:	ffffffff 			; <UNDEFINED> instruction: 0xffffffff
 260:	7c020001 	stcvc	0, cr0, [r2], {1}
 264:	000d0c0e 	andeq	r0, sp, lr, lsl #24
 268:	00000018 	andeq	r0, r0, r8, lsl r0
 26c:	00000258 	andeq	r0, r0, r8, asr r2
 270:	08000440 	stmdaeq	r0, {r6, sl}
 274:	0000007c 	andeq	r0, r0, ip, ror r0
 278:	87040e41 	strhi	r0, [r4, -r1, asr #28]
 27c:	180e4101 	stmdane	lr, {r0, r8, lr}
 280:	00070d41 	andeq	r0, r7, r1, asr #26
 284:	00000024 	andeq	r0, r0, r4, lsr #32
 288:	00000258 	andeq	r0, r0, r8, asr r2
 28c:	080004bc 	stmdaeq	r0, {r2, r3, r4, r5, r7, sl}
 290:	0000011e 	andeq	r0, r0, lr, lsl r1
 294:	87080e41 	strhi	r0, [r8, -r1, asr #28]
 298:	41018e02 	tstmi	r1, r2, lsl #28
 29c:	4101e80e 	tstmi	r1, lr, lsl #16
 2a0:	8a02070d 	bhi	81edc <_Min_Stack_Size+0x81adc>
 2a4:	0d41080e 	stcleq	8, cr0, [r1, #-56]	; 0xffffffc8
 2a8:	0000000d 	andeq	r0, r0, sp
 2ac:	00000024 	andeq	r0, r0, r4, lsr #32
 2b0:	00000258 	andeq	r0, r0, r8, asr r2
 2b4:	080005da 	stmdaeq	r0, {r1, r3, r4, r6, r7, r8, sl}
 2b8:	0000001a 	andeq	r0, r0, sl, lsl r0
 2bc:	87040e41 	strhi	r0, [r4, -r1, asr #28]
 2c0:	100e4101 	andne	r4, lr, r1, lsl #2
 2c4:	44070d41 	strmi	r0, [r7], #-3393	; 0xfffff2bf
 2c8:	0d41040e 	cfstrdeq	mvd0, [r1, #-56]	; 0xffffffc8
 2cc:	0ec7410d 	poleqs	f4, f7, #5.0
 2d0:	00000000 	andeq	r0, r0, r0
 2d4:	0000001c 	andeq	r0, r0, ip, lsl r0
 2d8:	00000258 	andeq	r0, r0, r8, asr r2
 2dc:	080005f4 	stmdaeq	r0, {r2, r4, r5, r6, r7, r8, sl}
 2e0:	0000000c 	andeq	r0, r0, ip
 2e4:	87040e41 	strhi	r0, [r4, -r1, asr #28]
 2e8:	070d4101 	streq	r4, [sp, -r1, lsl #2]
 2ec:	410d0d42 	tstmi	sp, r2, asr #26
 2f0:	00000ec7 	andeq	r0, r0, r7, asr #29
 2f4:	0000000c 	andeq	r0, r0, ip
 2f8:	ffffffff 			; <UNDEFINED> instruction: 0xffffffff
 2fc:	7c020001 	stcvc	0, cr0, [r2], {1}
 300:	000d0c0e 	andeq	r0, sp, lr, lsl #24
 304:	0000000c 	andeq	r0, r0, ip
 308:	000002f4 	strdeq	r0, [r0], -r4
 30c:	08000af0 	stmdaeq	r0, {r4, r5, r6, r7, r9, fp}
 310:	00000004 	andeq	r0, r0, r4

Disassembly of section .debug_info:

00000000 <.debug_info>:
   0:	00000905 	andeq	r0, r0, r5, lsl #18
   4:	00000004 	andeq	r0, r0, r4
   8:	01040000 	mrseq	r0, (UNDEF: 4)
   c:	00000256 	andeq	r0, r0, r6, asr r2
  10:	0000130c 	andeq	r1, r0, ip, lsl #6
  14:	0001b100 	andeq	fp, r1, r0, lsl #2
  18:	00044000 	andeq	r4, r4, r0
  1c:	0001c008 	andeq	ip, r1, r8
  20:	00000000 	andeq	r0, r0, r0
  24:	05020200 	streq	r0, [r2, #-512]	; 0xfffffe00
  28:	00000308 	andeq	r0, r0, r8, lsl #6
  2c:	00060102 	andeq	r0, r6, r2, lsl #2
  30:	02000004 	andeq	r0, r0, #4
  34:	03fe0801 	mvnseq	r0, #65536	; 0x10000
  38:	02020000 	andeq	r0, r2, #0
  3c:	0002c807 	andeq	ip, r2, r7, lsl #16
  40:	05040200 	streq	r0, [r4, #-512]	; 0xfffffe00
  44:	00000101 	andeq	r0, r0, r1, lsl #2
  48:	0001fa03 	andeq	pc, r1, r3, lsl #20
  4c:	194f0200 	stmdbne	pc, {r9}^	; <UNPREDICTABLE>
  50:	00000054 	andeq	r0, r0, r4, asr r0
  54:	92070402 	andls	r0, r7, #33554432	; 0x2000000
  58:	02000000 	andeq	r0, r0, #0
  5c:	00fc0508 	rscseq	r0, ip, r8, lsl #10
  60:	08020000 	stmdaeq	r2, {}	; <UNPREDICTABLE>
  64:	00008d07 	andeq	r8, r0, r7, lsl #26
  68:	05040400 	streq	r0, [r4, #-1024]	; 0xfffffc00
  6c:	00746e69 	rsbseq	r6, r4, r9, ror #28
  70:	97070402 	strls	r0, [r7, -r2, lsl #8]
  74:	03000000 	movweq	r0, #0
  78:	000001fc 	strdeq	r0, [r0], -ip
  7c:	48143003 	ldmdami	r4, {r0, r1, ip, sp}
  80:	05000000 	streq	r0, [r0, #-0]
  84:	00000077 	andeq	r0, r0, r7, ror r0
  88:	00007706 	andeq	r7, r0, r6, lsl #14
  8c:	00770700 	rsbseq	r0, r7, r0, lsl #14
  90:	009d0000 	addseq	r0, sp, r0
  94:	70080000 	andvc	r0, r8, r0
  98:	03000000 	movweq	r0, #0
  9c:	00830700 	addeq	r0, r3, r0, lsl #14
  a0:	00ad0000 	adceq	r0, sp, r0
  a4:	70080000 	andvc	r0, r8, r0
  a8:	01000000 	mrseq	r0, (UNDEF: 0)
  ac:	009d0500 	addseq	r0, sp, r0, lsl #10
  b0:	77070000 	strvc	r0, [r7, -r0]
  b4:	c2000000 	andgt	r0, r0, #0
  b8:	08000000 	stmdaeq	r0, {}	; <UNPREDICTABLE>
  bc:	00000070 	andeq	r0, r0, r0, ror r0
  c0:	28090008 	stmdacs	r9, {r3}
  c4:	09040204 	stmdbeq	r4, {r2, r9}
  c8:	0000014b 	andeq	r0, r0, fp, asr #2
  cc:	0000870a 	andeq	r8, r0, sl, lsl #14
  d0:	04040400 	streq	r0, [r4], #-1024	; 0xfffffc00
  d4:	00008311 	andeq	r8, r0, r1, lsl r3
  d8:	800a0000 	andhi	r0, sl, r0
  dc:	04000000 	streq	r0, [r0], #-0
  e0:	83110405 	tsthi	r1, #83886080	; 0x5000000
  e4:	04000000 	streq	r0, [r0], #-0
  e8:	0001a90a 	andeq	sl, r1, sl, lsl #18
  ec:	04060400 	streq	r0, [r6], #-1024	; 0xfffffc00
  f0:	00008311 	andeq	r8, r0, r1, lsl r3
  f4:	000a0800 	andeq	r0, sl, r0, lsl #16
  f8:	04000000 	streq	r0, [r0], #-0
  fc:	83110407 	tsthi	r1, #117440512	; 0x7000000
 100:	0c000000 	stceq	0, cr0, [r0], {-0}
 104:	5244490b 	subpl	r4, r4, #180224	; 0x2c000
 108:	04080400 	streq	r0, [r8], #-1024	; 0xfffffc00
 10c:	00008311 	andeq	r8, r0, r1, lsl r3
 110:	4f0b1000 	svcmi	0x000b1000
 114:	04005244 	streq	r5, [r0], #-580	; 0xfffffdbc
 118:	83110409 	tsthi	r1, #150994944	; 0x9000000
 11c:	14000000 	strne	r0, [r0], #-0
 120:	00010a0a 	andeq	r0, r1, sl, lsl #20
 124:	040a0400 	streq	r0, [sl], #-1024	; 0xfffffc00
 128:	00008311 	andeq	r8, r0, r1, lsl r3
 12c:	510a1800 	tstpl	sl, r0, lsl #16
 130:	04000002 	streq	r0, [r0], #-2
 134:	8311040b 	tsthi	r1, #184549376	; 0xb000000
 138:	1c000000 	stcne	0, cr0, [r0], {-0}
 13c:	5246410b 	subpl	r4, r6, #-1073741822	; 0xc0000002
 140:	040c0400 	streq	r0, [ip], #-1024	; 0xfffffc00
 144:	0000ad11 	andeq	sl, r0, r1, lsl sp
 148:	0c002000 	stceq	0, cr2, [r0], {-0}
 14c:	00000227 	andeq	r0, r0, r7, lsr #4
 150:	03040d04 	movweq	r0, #19716	; 0x4d04
 154:	000000c2 	andeq	r0, r0, r2, asr #1
 158:	0401300d 	streq	r3, [r1], #-13
 15c:	fa0904ce 	blx	24149c <_Min_Stack_Size+0x24109c>
 160:	0b000004 	bleq	178 <_Min_Heap_Size-0x88>
 164:	04005243 	streq	r5, [r0], #-579	; 0xfffffdbd
 168:	831004d0 	tsthi	r0, #208, 8	; 0xd0000000
 16c:	00000000 	andeq	r0, r0, r0
 170:	0001760a 	andeq	r7, r1, sl, lsl #12
 174:	04d10400 	ldrbeq	r0, [r1], #1024	; 0x400
 178:	00008310 	andeq	r8, r0, r0, lsl r3
 17c:	770a0400 	strvc	r0, [sl, -r0, lsl #8]
 180:	04000003 	streq	r0, [r0], #-3
 184:	831004d2 	tsthi	r0, #-771751936	; 0xd2000000
 188:	08000000 	stmdaeq	r0, {}	; <UNPREDICTABLE>
 18c:	0000c80a 	andeq	ip, r0, sl, lsl #16
 190:	04d30400 	ldrbeq	r0, [r3], #1024	; 0x400
 194:	00008310 	andeq	r8, r0, r0, lsl r3
 198:	3e0a0c00 	cdpcc	12, 0, cr0, cr10, cr0, {0}
 19c:	04000004 	streq	r0, [r0], #-4
 1a0:	831004d4 	tsthi	r0, #212, 8	; 0xd4000000
 1a4:	10000000 	andne	r0, r0, r0
 1a8:	00037d0a 	andeq	r7, r3, sl, lsl #26
 1ac:	04d50400 	ldrbeq	r0, [r5], #1024	; 0x400
 1b0:	0000770f 	andeq	r7, r0, pc, lsl #14
 1b4:	3c0a1400 	cfstrscc	mvf1, [sl], {-0}
 1b8:	04000004 	streq	r0, [r0], #-4
 1bc:	831004d6 	tsthi	r0, #-704643072	; 0xd6000000
 1c0:	18000000 	stmdane	r0, {}	; <UNPREDICTABLE>
 1c4:	00006d0a 	andeq	r6, r0, sl, lsl #26
 1c8:	04d70400 	ldrbeq	r0, [r7], #1024	; 0x400
 1cc:	00008310 	andeq	r8, r0, r0, lsl r3
 1d0:	130a1c00 	movwne	r1, #44032	; 0xac00
 1d4:	04000004 	streq	r0, [r0], #-4
 1d8:	831004d8 	tsthi	r0, #216, 8	; 0xd8000000
 1dc:	20000000 	andcs	r0, r0, r0
 1e0:	0003870a 	andeq	r8, r3, sl, lsl #14
 1e4:	04d90400 	ldrbeq	r0, [r9], #1024	; 0x400
 1e8:	0000770f 	andeq	r7, r0, pc, lsl #14
 1ec:	2b0a2400 	blcs	2891f4 <_Min_Stack_Size+0x288df4>
 1f0:	04000004 	streq	r0, [r0], #-4
 1f4:	831004da 	tsthi	r0, #-637534208	; 0xda000000
 1f8:	28000000 	stmdacs	r0, {}	; <UNPREDICTABLE>
 1fc:	0004bc0a 	andeq	fp, r4, sl, lsl #24
 200:	04db0400 	ldrbeq	r0, [fp], #1024	; 0x400
 204:	00008310 	andeq	r8, r0, r0, lsl r3
 208:	480a2c00 	stmdami	sl, {sl, fp, sp}
 20c:	04000003 	streq	r0, [r0], #-3
 210:	831004dc 	tsthi	r0, #220, 8	; 0xdc000000
 214:	30000000 	andcc	r0, r0, r0
 218:	0001160a 	andeq	r1, r1, sl, lsl #12
 21c:	04dd0400 	ldrbeq	r0, [sp], #1024	; 0x400
 220:	00008310 	andeq	r8, r0, r0, lsl r3
 224:	850a3400 	strhi	r3, [sl, #-1024]	; 0xfffffc00
 228:	04000001 	streq	r0, [r0], #-1
 22c:	831004de 	tsthi	r0, #-570425344	; 0xde000000
 230:	38000000 	stmdacc	r0, {}	; <UNPREDICTABLE>
 234:	00021d0a 	andeq	r1, r2, sl, lsl #26
 238:	04df0400 	ldrbeq	r0, [pc], #1024	; 240 <_Min_Heap_Size+0x40>
 23c:	00008310 	andeq	r8, r0, r0, lsl r3
 240:	0d0a3c00 	stceq	12, cr3, [sl, #-0]
 244:	04000005 	streq	r0, [r0], #-5
 248:	831004e0 	tsthi	r0, #224, 8	; 0xe0000000
 24c:	40000000 	andmi	r0, r0, r0
 250:	0000d70a 	andeq	sp, r0, sl, lsl #14
 254:	04e10400 	strbteq	r0, [r1], #1024	; 0x400
 258:	00008310 	andeq	r8, r0, r0, lsl r3
 25c:	910a4400 	tstls	sl, r0, lsl #8
 260:	04000003 	streq	r0, [r0], #-3
 264:	771004e2 	ldrvc	r0, [r0, -r2, ror #9]
 268:	48000000 	stmdami	r0, {}	; <UNPREDICTABLE>
 26c:	0003580a 	andeq	r5, r3, sl, lsl #16
 270:	04e30400 	strbteq	r0, [r3], #1024	; 0x400
 274:	00008311 	andeq	r8, r0, r1, lsl r3
 278:	670a4c00 	strvs	r4, [sl, -r0, lsl #24]
 27c:	04000003 	streq	r0, [r0], #-3
 280:	831104e4 	tsthi	r1, #228, 8	; 0xe4000000
 284:	50000000 	andpl	r0, r0, r0
 288:	00045a0a 	andeq	r5, r4, sl, lsl #20
 28c:	04e50400 	strbteq	r0, [r5], #1024	; 0x400
 290:	00008311 	andeq	r8, r0, r1, lsl r3
 294:	cb0a5400 	blgt	29529c <_Min_Stack_Size+0x294e9c>
 298:	04000004 	streq	r0, [r0], #-4
 29c:	831104e6 	tsthi	r1, #-436207616	; 0xe6000000
 2a0:	58000000 	stmdapl	r0, {}	; <UNPREDICTABLE>
 2a4:	00039b0a 	andeq	r9, r3, sl, lsl #22
 2a8:	04e70400 	strbteq	r0, [r7], #1024	; 0x400
 2ac:	00007710 	andeq	r7, r0, r0, lsl r7
 2b0:	f50a5c00 			; <UNDEFINED> instruction: 0xf50a5c00
 2b4:	04000001 	streq	r0, [r0], #-1
 2b8:	831104e8 	tsthi	r1, #232, 8	; 0xe8000000
 2bc:	60000000 	andvs	r0, r0, r0
 2c0:	0003030a 	andeq	r0, r3, sl, lsl #6
 2c4:	04e90400 	strbteq	r0, [r9], #1024	; 0x400
 2c8:	00008311 	andeq	r8, r0, r1, lsl r3
 2cc:	610a6400 	tstvs	sl, r0, lsl #8
 2d0:	04000000 	streq	r0, [r0], #-0
 2d4:	831104ea 	tsthi	r1, #-369098752	; 0xea000000
 2d8:	68000000 	stmdavs	r0, {}	; <UNPREDICTABLE>
 2dc:	0003a50a 	andeq	sl, r3, sl, lsl #10
 2e0:	04eb0400 	strbteq	r0, [fp], #1024	; 0x400
 2e4:	0000770f 	andeq	r7, r0, pc, lsl #14
 2e8:	7b0a6c00 	blvc	29b2f0 <_Min_Stack_Size+0x29aef0>
 2ec:	04000000 	streq	r0, [r0], #-0
 2f0:	831104ec 	tsthi	r1, #236, 8	; 0xec000000
 2f4:	70000000 	andvc	r0, r0, r0
 2f8:	5253430b 	subspl	r4, r3, #738197504	; 0x2c000000
 2fc:	04ed0400 	strbteq	r0, [sp], #1024	; 0x400
 300:	00008311 	andeq	r8, r0, r1, lsl r3
 304:	af0a7400 	svcge	0x000a7400
 308:	04000003 	streq	r0, [r0], #-3
 30c:	770f04ee 	strvc	r0, [pc, -lr, ror #9]
 310:	78000000 	stmdavc	r0, {}	; <UNPREDICTABLE>
 314:	0003190a 	andeq	r1, r3, sl, lsl #18
 318:	04ef0400 	strbteq	r0, [pc], #1024	; 320 <_Min_Heap_Size+0x120>
 31c:	00008310 	andeq	r8, r0, r0, lsl r3
 320:	9c0a7c00 	stcls	12, cr7, [sl], {-0}
 324:	04000004 	streq	r0, [r0], #-4
 328:	831004f0 	tsthi	r0, #240, 8	; 0xf0000000
 32c:	80000000 	andhi	r0, r0, r0
 330:	0002bf0a 	andeq	fp, r2, sl, lsl #30
 334:	04f10400 	ldrbteq	r0, [r1], #1024	; 0x400
 338:	00008310 	andeq	r8, r0, r0, lsl r3
 33c:	f50a8400 			; <UNDEFINED> instruction: 0xf50a8400
 340:	04000003 	streq	r0, [r0], #-3
 344:	831004f2 	tsthi	r0, #-234881024	; 0xf2000000
 348:	88000000 	stmdahi	r0, {}	; <UNPREDICTABLE>
 34c:	0000e80a 	andeq	lr, r0, sl, lsl #16
 350:	04f30400 	ldrbteq	r0, [r3], #1024	; 0x400
 354:	00008310 	andeq	r8, r0, r0, lsl r3
 358:	3b0a8c00 	blcc	2a3360 <_Min_Stack_Size+0x2a2f60>
 35c:	04000002 	streq	r0, [r0], #-2
 360:	831004f4 	tsthi	r0, #244, 8	; 0xf4000000
 364:	90000000 	andls	r0, r0, r0
 368:	0004da0a 	andeq	sp, r4, sl, lsl #20
 36c:	04f50400 	ldrbteq	r0, [r5], #1024	; 0x400
 370:	00008310 	andeq	r8, r0, r0, lsl r3
 374:	290a9400 	stmdbcs	sl, {sl, ip, pc}
 378:	04000003 	streq	r0, [r0], #-3
 37c:	831004f6 	tsthi	r0, #-167772160	; 0xf6000000
 380:	98000000 	stmdals	r0, {}	; <UNPREDICTABLE>
 384:	0004ac0a 	andeq	sl, r4, sl, lsl #24
 388:	04f70400 	ldrbteq	r0, [r7], #1024	; 0x400
 38c:	00008310 	andeq	r8, r0, r0, lsl r3
 390:	470b9c00 	strmi	r9, [fp, -r0, lsl #24]
 394:	04005243 	streq	r5, [r0], #-579	; 0xfffffdbd
 398:	831004f8 	tsthi	r0, #248, 8	; 0xf8000000
 39c:	a0000000 	andge	r0, r0, r0
 3a0:	0003ca0a 	andeq	ip, r3, sl, lsl #20
 3a4:	04f90400 	ldrbteq	r0, [r9], #1024	; 0x400
 3a8:	0000770f 	andeq	r7, r0, pc, lsl #14
 3ac:	0d0aa400 	cfstrseq	mvf10, [sl, #-0]
 3b0:	04000000 	streq	r0, [r0], #-0
 3b4:	831004fa 	tsthi	r0, #-100663296	; 0xfa000000
 3b8:	a8000000 	stmdage	r0, {}	; <UNPREDICTABLE>
 3bc:	0001300a 	andeq	r3, r1, sl
 3c0:	04fb0400 	ldrbteq	r0, [fp], #1024	; 0x400
 3c4:	0000b20f 	andeq	fp, r0, pc, lsl #4
 3c8:	520bac00 	andpl	sl, fp, #0, 24
 3cc:	04005253 	streq	r5, [r0], #-595	; 0xfffffdad
 3d0:	831004fc 	tsthi	r0, #252, 8	; 0xfc000000
 3d4:	d0000000 	andle	r0, r0, r0
 3d8:	0003390a 	andeq	r3, r3, sl, lsl #18
 3dc:	04fd0400 	ldrbteq	r0, [sp], #1024	; 0x400
 3e0:	00008310 	andeq	r8, r0, r0, lsl r3
 3e4:	8d0ad400 	cfstrshi	mvf13, [sl, #-0]
 3e8:	04000004 	streq	r0, [r0], #-4
 3ec:	831004fe 	tsthi	r0, #-33554432	; 0xfe000000
 3f0:	d8000000 	stmdale	r0, {}	; <UNPREDICTABLE>
 3f4:	0003e60a 	andeq	lr, r3, sl, lsl #12
 3f8:	04ff0400 	ldrbteq	r0, [pc], #1024	; 400 <_Min_Stack_Size>
 3fc:	00008310 	andeq	r8, r0, r0, lsl r3
 400:	f40adc00 			; <UNDEFINED> instruction: 0xf40adc00
 404:	04000002 	streq	r0, [r0], #-2
 408:	83100500 	tsthi	r0, #0, 10
 40c:	e0000000 	and	r0, r0, r0
 410:	0001580a 	andeq	r5, r1, sl, lsl #16
 414:	05010400 	streq	r0, [r1, #-1024]	; 0xfffffc00
 418:	00008310 	andeq	r8, r0, r0, lsl r3
 41c:	a00ae400 	andge	lr, sl, r0, lsl #8
 420:	04000001 	streq	r0, [r0], #-1
 424:	83100502 	tsthi	r0, #8388608	; 0x800000
 428:	e8000000 	stmda	r0, {}	; <UNPREDICTABLE>
 42c:	00044a0a 	andeq	r4, r4, sl, lsl #20
 430:	05030400 	streq	r0, [r3, #-1024]	; 0xfffffc00
 434:	00008310 	andeq	r8, r0, r0, lsl r3
 438:	670aec00 	strvs	lr, [sl, -r0, lsl #24]
 43c:	04000001 	streq	r0, [r0], #-1
 440:	83100504 	tsthi	r0, #4, 10	; 0x1000000
 444:	f0000000 			; <UNDEFINED> instruction: 0xf0000000
 448:	00054f0a 	andeq	r4, r5, sl, lsl #30
 44c:	05050400 	streq	r0, [r5, #-1024]	; 0xfffffc00
 450:	00008310 	andeq	r8, r0, r0, lsl r3
 454:	3b0af400 	blcc	2bd45c <_Min_Stack_Size+0x2bd05c>
 458:	04000001 	streq	r0, [r0], #-1
 45c:	77100506 	ldrvc	r0, [r0, -r6, lsl #10]
 460:	f8000000 			; <UNDEFINED> instruction: 0xf8000000
 464:	00052d0a 	andeq	r2, r5, sl, lsl #26
 468:	05070400 	streq	r0, [r7, #-1024]	; 0xfffffc00
 46c:	00008310 	andeq	r8, r0, r0, lsl r3
 470:	0c0efc00 	stceq	12, cr15, [lr], {-0}
 474:	04000002 	streq	r0, [r0], #-2
 478:	83100508 	tsthi	r0, #8, 10	; 0x2000000
 47c:	00000000 	andeq	r0, r0, r0
 480:	04eb0e01 	strbteq	r0, [fp], #3585	; 0xe01
 484:	09040000 	stmdbeq	r4, {}	; <UNPREDICTABLE>
 488:	00831005 	addeq	r1, r3, r5
 48c:	01040000 	mrseq	r0, (UNDEF: 4)
 490:	0000b70e 	andeq	fp, r0, lr, lsl #14
 494:	050a0400 	streq	r0, [sl, #-1024]	; 0xfffffc00
 498:	00008310 	andeq	r8, r0, r0, lsl r3
 49c:	0e010800 	cdpeq	8, 0, cr0, cr1, cr0, {0}
 4a0:	000004fc 	strdeq	r0, [r0], -ip
 4a4:	10050b04 	andne	r0, r5, r4, lsl #22
 4a8:	00000083 	andeq	r0, r0, r3, lsl #1
 4ac:	6a0e010c 	bvs	3808e4 <_Min_Stack_Size+0x3804e4>
 4b0:	04000004 	streq	r0, [r0], #-4
 4b4:	8310050c 	tsthi	r0, #12, 10	; 0x3000000
 4b8:	10000000 	andne	r0, r0, r0
 4bc:	02e20e01 	rsceq	r0, r2, #1, 28
 4c0:	0d040000 	stceq	0, cr0, [r4, #-0]
 4c4:	00831005 	addeq	r1, r3, r5
 4c8:	01140000 	tsteq	r4, r0
 4cc:	00047c0e 	andeq	r7, r4, lr, lsl #24
 4d0:	050e0400 	streq	r0, [lr, #-1024]	; 0xfffffc00
 4d4:	00008310 	andeq	r8, r0, r0, lsl r3
 4d8:	0e011800 	cdpeq	8, 0, cr1, cr1, cr0, {0}
 4dc:	0000053e 	andeq	r0, r0, lr, lsr r5
 4e0:	10050f04 	andne	r0, r5, r4, lsl #30
 4e4:	00000083 	andeq	r0, r0, r3, lsl #1
 4e8:	460e011c 			; <UNDEFINED> instruction: 0x460e011c
 4ec:	04000001 	streq	r0, [r0], #-1
 4f0:	8d0f0510 	cfstr32hi	mvfx0, [pc, #-64]	; 4b8 <_Min_Stack_Size+0xb8>
 4f4:	20000000 	andcs	r0, r0, r0
 4f8:	450c0001 	strmi	r0, [ip, #-1]
 4fc:	04000002 	streq	r0, [r0], #-2
 500:	58030512 	stmdapl	r3, {r1, r4, r8, sl}
 504:	0f000001 	svceq	0x00000001
 508:	000003b9 			; <UNDEFINED> instruction: 0x000003b9
 50c:	f4067101 	vst4.8	{d7,d9,d11,d13}, [r6], r1
 510:	0c080005 	stceq	0, cr0, [r8], {5}
 514:	01000000 	mrseq	r0, (UNDEF: 0)
 518:	0120109c 			; <UNDEFINED> instruction: 0x0120109c
 51c:	6c010000 	stcvs	0, cr0, [r1], {-0}
 520:	0005da06 	andeq	sp, r5, r6, lsl #20
 524:	00001a08 	andeq	r1, r0, r8, lsl #20
 528:	3d9c0100 	ldfccs	f0, [ip]
 52c:	11000005 	tstne	r0, r5
 530:	6e010061 	cdpvs	0, 0, cr0, cr1, cr1, {3}
 534:	00006909 	andeq	r6, r0, r9, lsl #18
 538:	74910200 	ldrvc	r0, [r1], #512	; 0x200
 53c:	03d41200 	bicseq	r1, r4, #0, 4
 540:	14010000 	strne	r0, [r1], #-0
 544:	0004bc06 	andeq	fp, r4, r6, lsl #24
 548:	00011e08 	andeq	r1, r1, r8, lsl #28
 54c:	b69c0100 	ldrlt	r0, [ip], r0, lsl #2
 550:	13000008 	movwne	r0, #8
 554:	0000041a 	andeq	r0, r0, sl, lsl r4
 558:	88141701 	ldmdahi	r4, {r0, r8, r9, sl, ip}
 55c:	02000000 	andeq	r0, r0, #0
 560:	6f137491 	svcvs	0x00137491
 564:	01000001 	tsteq	r0, r1
 568:	00881418 	addeq	r1, r8, r8, lsl r4
 56c:	91020000 	mrsls	r0, (UNDEF: 2)
 570:	03701370 	cmneq	r0, #112, 6	; 0xc0000001
 574:	19010000 	stmdbne	r1, {}	; <UNPREDICTABLE>
 578:	00008814 	andeq	r8, r0, r4, lsl r8
 57c:	6c910200 	lfmvs	f0, 4, [r1], {0}
 580:	0000c113 	andeq	ip, r0, r3, lsl r1
 584:	141a0100 	ldrne	r0, [sl], #-256	; 0xffffff00
 588:	00000088 	andeq	r0, r0, r8, lsl #1
 58c:	13689102 	cmnne	r8, #-2147483648	; 0x80000000
 590:	000000a4 	andeq	r0, r0, r4, lsr #1
 594:	88141b01 	ldmdahi	r4, {r0, r8, r9, fp, ip}
 598:	02000000 	andeq	r0, r0, #0
 59c:	35136491 	ldrcc	r6, [r3, #-1169]	; 0xfffffb6f
 5a0:	01000004 	tsteq	r0, r4
 5a4:	0088141c 	addeq	r1, r8, ip, lsl r4
 5a8:	91020000 	mrsls	r0, (UNDEF: 2)
 5ac:	00661360 	rsbeq	r1, r6, r0, ror #6
 5b0:	1d010000 	stcne	0, cr0, [r1, #-0]
 5b4:	00008814 	andeq	r8, r0, r4, lsl r8
 5b8:	5c910200 	lfmpl	f0, 4, [r1], {0}
 5bc:	00040c13 	andeq	r0, r4, r3, lsl ip
 5c0:	141e0100 	ldrne	r0, [lr], #-256	; 0xffffff00
 5c4:	00000088 	andeq	r0, r0, r8, lsl #1
 5c8:	13589102 	cmpne	r8, #-2147483648	; 0x80000000
 5cc:	00000424 	andeq	r0, r0, r4, lsr #8
 5d0:	88141f01 	ldmdahi	r4, {r0, r8, r9, sl, fp, ip}
 5d4:	02000000 	andeq	r0, r0, #0
 5d8:	b5135491 	ldrlt	r5, [r3, #-1169]	; 0xfffffb6f
 5dc:	01000004 	tsteq	r0, r4
 5e0:	00881420 	addeq	r1, r8, r0, lsr #8
 5e4:	91020000 	mrsls	r0, (UNDEF: 2)
 5e8:	03411350 	movteq	r1, #4944	; 0x1350
 5ec:	21010000 	mrscs	r0, (UNDEF: 1)
 5f0:	00008814 	andeq	r8, r0, r4, lsl r8
 5f4:	4c910200 	lfmmi	f0, 4, [r1], {0}
 5f8:	00017e13 	andeq	r7, r1, r3, lsl lr
 5fc:	14220100 	strtne	r0, [r2], #-256	; 0xffffff00
 600:	00000088 	andeq	r0, r0, r8, lsl #1
 604:	13489102 	movtne	r9, #33026	; 0x8102
 608:	00000506 	andeq	r0, r0, r6, lsl #10
 60c:	88142301 	ldmdahi	r4, {r0, r8, r9, sp}
 610:	02000000 	andeq	r0, r0, #0
 614:	0f134491 	svceq	0x00134491
 618:	01000001 	tsteq	r0, r1
 61c:	00881424 	addeq	r1, r8, r4, lsr #8
 620:	91020000 	mrsls	r0, (UNDEF: 2)
 624:	02161340 	andseq	r1, r6, #64, 6
 628:	25010000 	strcs	r0, [r1, #-0]
 62c:	00008814 	andeq	r8, r0, r4, lsl r8
 630:	bc910300 	ldclt	3, cr0, [r1], {0}
 634:	00d0137f 	sbcseq	r1, r0, pc, ror r3
 638:	26010000 	strcs	r0, [r1], -r0
 63c:	00008814 	andeq	r8, r0, r4, lsl r8
 640:	b8910300 	ldmlt	r1, {r8, r9}
 644:	0351137f 	cmpeq	r1, #-67108863	; 0xfc000001
 648:	27010000 	strcs	r0, [r1, -r0]
 64c:	00008814 	andeq	r8, r0, r4, lsl r8
 650:	b4910300 	ldrlt	r0, [r1], #768	; 0x300
 654:	0360137f 	cmneq	r0, #-67108863	; 0xfc000001
 658:	28010000 	stmdacs	r1, {}	; <UNPREDICTABLE>
 65c:	00008814 	andeq	r8, r0, r4, lsl r8
 660:	b0910300 	addslt	r0, r1, r0, lsl #6
 664:	0453137f 	ldrbeq	r1, [r3], #-895	; 0xfffffc81
 668:	29010000 	stmdbcs	r1, {}	; <UNPREDICTABLE>
 66c:	00008814 	andeq	r8, r0, r4, lsl r8
 670:	ac910300 	ldcge	3, cr0, [r1], {0}
 674:	04c4137f 	strbeq	r1, [r4], #895	; 0x37f
 678:	2a010000 	bcs	40680 <_Min_Stack_Size+0x40280>
 67c:	00008814 	andeq	r8, r0, r4, lsl r8
 680:	a8910300 	ldmge	r1, {r8, r9}
 684:	01ee137f 	mvneq	r1, pc, ror r3
 688:	2b010000 	blcs	40690 <_Min_Stack_Size+0x40290>
 68c:	00008814 	andeq	r8, r0, r4, lsl r8
 690:	a4910300 	ldrge	r0, [r1], #768	; 0x300
 694:	02fc137f 	rscseq	r1, ip, #-67108863	; 0xfc000001
 698:	2c010000 	stccs	0, cr0, [r1], {-0}
 69c:	00008814 	andeq	r8, r0, r4, lsl r8
 6a0:	a0910300 	addsge	r0, r1, r0, lsl #6
 6a4:	005a137f 	subseq	r1, sl, pc, ror r3
 6a8:	2d010000 	stccs	0, cr0, [r1, #-0]
 6ac:	00008814 	andeq	r8, r0, r4, lsl r8
 6b0:	9c910300 	ldcls	3, cr0, [r1], {0}
 6b4:	0074137f 	rsbseq	r1, r4, pc, ror r3
 6b8:	2e010000 	cdpcs	0, 0, cr0, cr1, cr0, {0}
 6bc:	00008814 	andeq	r8, r0, r4, lsl r8
 6c0:	98910300 	ldmls	r1, {r8, r9}
 6c4:	0516137f 	ldreq	r1, [r6, #-895]	; 0xfffffc81
 6c8:	2f010000 	svccs	0x00010000
 6cc:	00008814 	andeq	r8, r0, r4, lsl r8
 6d0:	94910300 	ldrls	r0, [r1], #768	; 0x300
 6d4:	0495137f 	ldreq	r1, [r5], #895	; 0x37f
 6d8:	30010000 	andcc	r0, r1, r0
 6dc:	00008814 	andeq	r8, r0, r4, lsl r8
 6e0:	90910300 	addsls	r0, r1, r0, lsl #6
 6e4:	02b8137f 	adcseq	r1, r8, #-67108863	; 0xfc000001
 6e8:	31010000 	mrscc	r0, (UNDEF: 1)
 6ec:	00008814 	andeq	r8, r0, r4, lsl r8
 6f0:	8c910300 	ldchi	3, cr0, [r1], {0}
 6f4:	0312137f 	tsteq	r2, #-67108863	; 0xfc000001
 6f8:	32010000 	andcc	r0, r1, #0
 6fc:	00008814 	andeq	r8, r0, r4, lsl r8
 700:	88910300 	ldmhi	r1, {r8, r9}
 704:	03ee137f 	mvneq	r1, #-67108863	; 0xfc000001
 708:	33010000 	movwcc	r0, #4096	; 0x1000
 70c:	00008814 	andeq	r8, r0, r4, lsl r8
 710:	84910300 	ldrhi	r0, [r1], #768	; 0x300
 714:	00e1137f 	rsceq	r1, r1, pc, ror r3
 718:	34010000 	strcc	r0, [r1], #-0
 71c:	00008814 	andeq	r8, r0, r4, lsl r8
 720:	80910300 	addshi	r0, r1, r0, lsl #6
 724:	0234137f 	eorseq	r1, r4, #-67108863	; 0xfc000001
 728:	35010000 	strcc	r0, [r1, #-0]
 72c:	00008814 	andeq	r8, r0, r4, lsl r8
 730:	fc910300 	ldc2	3, cr0, [r1], {0}
 734:	04d3137e 	ldrbeq	r1, [r3], #894	; 0x37e
 738:	36010000 	strcc	r0, [r1], -r0
 73c:	00008814 	andeq	r8, r0, r4, lsl r8
 740:	f8910300 			; <UNDEFINED> instruction: 0xf8910300
 744:	0322137e 			; <UNDEFINED> instruction: 0x0322137e
 748:	37010000 	strcc	r0, [r1, -r0]
 74c:	00008814 	andeq	r8, r0, r4, lsl r8
 750:	f4910300 			; <UNDEFINED> instruction: 0xf4910300
 754:	04a5137e 	strteq	r1, [r5], #894	; 0x37e
 758:	38010000 	stmdacc	r1, {}	; <UNPREDICTABLE>
 75c:	00008814 	andeq	r8, r0, r4, lsl r8
 760:	f0910300 			; <UNDEFINED> instruction: 0xf0910300
 764:	00f1137e 	rscseq	r1, r1, lr, ror r3
 768:	39010000 	stmdbcc	r1, {}	; <UNPREDICTABLE>
 76c:	00008814 	andeq	r8, r0, r4, lsl r8
 770:	ec910300 	ldc	3, cr0, [r1], {0}
 774:	0006137e 	andeq	r1, r6, lr, ror r3
 778:	3a010000 	bcc	40780 <_Min_Stack_Size+0x40380>
 77c:	00008814 	andeq	r8, r0, r4, lsl r8
 780:	e8910300 	ldm	r1, {r8, r9}
 784:	018e137e 	orreq	r1, lr, lr, ror r3
 788:	3b010000 	blcc	40790 <_Min_Stack_Size+0x40390>
 78c:	00008814 	andeq	r8, r0, r4, lsl r8
 790:	e4910300 	ldr	r0, [r1], #768	; 0x300
 794:	0486137e 	streq	r1, [r6], #894	; 0x37e
 798:	3c010000 	stccc	0, cr0, [r1], {-0}
 79c:	00008814 	andeq	r8, r0, r4, lsl r8
 7a0:	e0910300 	adds	r0, r1, r0, lsl #6
 7a4:	03df137e 	bicseq	r1, pc, #-134217727	; 0xf8000001
 7a8:	3d010000 	stccc	0, cr0, [r1, #-0]
 7ac:	00008814 	andeq	r8, r0, r4, lsl r8
 7b0:	dc910300 	ldcle	3, cr0, [r1], {0}
 7b4:	0332137e 	teqeq	r2, #-134217727	; 0xf8000001
 7b8:	3e010000 	cdpcc	0, 0, cr0, cr1, cr0, {0}
 7bc:	00008814 	andeq	r8, r0, r4, lsl r8
 7c0:	d8910300 	ldmle	r1, {r8, r9}
 7c4:	02ed137e 	rsceq	r1, sp, #-134217727	; 0xf8000001
 7c8:	3f010000 	svccc	0x00010000
 7cc:	00008814 	andeq	r8, r0, r4, lsl r8
 7d0:	d4910300 	ldrle	r0, [r1], #768	; 0x300
 7d4:	0443137e 	strbeq	r1, [r3], #-894	; 0xfffffc82
 7d8:	40010000 	andmi	r0, r1, r0
 7dc:	00008814 	andeq	r8, r0, r4, lsl r8
 7e0:	d0910300 	addsle	r0, r1, r0, lsl #6
 7e4:	0199137e 	orrseq	r1, r9, lr, ror r3
 7e8:	41010000 	mrsmi	r0, (UNDEF: 1)
 7ec:	00008814 	andeq	r8, r0, r4, lsl r8
 7f0:	cc910300 	ldcgt	3, cr0, [r1], {0}
 7f4:	0160137e 	smceq	318	; 0x13e
 7f8:	42010000 	andmi	r0, r1, #0
 7fc:	00008814 	andeq	r8, r0, r4, lsl r8
 800:	c8910300 	ldmgt	r1, {r8, r9}
 804:	0151137e 	cmpeq	r1, lr, ror r3
 808:	43010000 	movwmi	r0, #4096	; 0x1000
 80c:	00008814 	andeq	r8, r0, r4, lsl r8
 810:	c4910300 	ldrgt	r0, [r1], #768	; 0x300
 814:	0548137e 	strbeq	r1, [r8, #-894]	; 0xfffffc82
 818:	44010000 	strmi	r0, [r1], #-0
 81c:	00008814 	andeq	r8, r0, r4, lsl r8
 820:	c0910300 	addsgt	r0, r1, r0, lsl #6
 824:	0205137e 	andeq	r1, r5, #-134217727	; 0xf8000001
 828:	46010000 	strmi	r0, [r1], -r0
 82c:	00008814 	andeq	r8, r0, r4, lsl r8
 830:	bc910300 	ldclt	3, cr0, [r1], {0}
 834:	04e4137e 	strbteq	r1, [r4], #894	; 0x37e
 838:	47010000 	strmi	r0, [r1, -r0]
 83c:	00008814 	andeq	r8, r0, r4, lsl r8
 840:	b8910300 	ldmlt	r1, {r8, r9}
 844:	0526137e 	streq	r1, [r6, #-894]!	; 0xfffffc82
 848:	48010000 	stmdami	r1, {}	; <UNPREDICTABLE>
 84c:	00008814 	andeq	r8, r0, r4, lsl r8
 850:	b4910300 	ldrlt	r0, [r1], #768	; 0x300
 854:	00b0137e 	adcseq	r1, r0, lr, ror r3
 858:	49010000 	stmdbmi	r1, {}	; <UNPREDICTABLE>
 85c:	00008814 	andeq	r8, r0, r4, lsl r8
 860:	b0910300 	addslt	r0, r1, r0, lsl #6
 864:	0463137e 	strbteq	r1, [r3], #-894	; 0xfffffc82
 868:	4b010000 	blmi	40870 <_Min_Stack_Size+0x40470>
 86c:	00008814 	andeq	r8, r0, r4, lsl r8
 870:	ac910300 	ldcge	3, cr0, [r1], {0}
 874:	02db137e 	sbcseq	r1, fp, #-134217727	; 0xf8000001
 878:	4c010000 	stcmi	0, cr0, [r1], {-0}
 87c:	00008814 	andeq	r8, r0, r4, lsl r8
 880:	a8910300 	ldmge	r1, {r8, r9}
 884:	0475137e 	ldrbteq	r1, [r5], #-894	; 0xfffffc82
 888:	4d010000 	stcmi	0, cr0, [r1, #-0]
 88c:	00008814 	andeq	r8, r0, r4, lsl r8
 890:	a4910300 	ldrge	r0, [r1], #768	; 0x300
 894:	04f5137e 	ldrbteq	r1, [r5], #894	; 0x37e
 898:	4e010000 	cdpmi	0, 0, cr0, cr1, cr0, {0}
 89c:	00008814 	andeq	r8, r0, r4, lsl r8
 8a0:	a0910300 	addsge	r0, r1, r0, lsl #6
 8a4:	0537137e 	ldreq	r1, [r7, #-894]!	; 0xfffffc82
 8a8:	4f010000 	svcmi	0x00010000
 8ac:	00008814 	andeq	r8, r0, r4, lsl r8
 8b0:	9c910300 	ldcls	3, cr0, [r1], {0}
 8b4:	2114007e 	tstcs	r4, lr, ror r0
 8b8:	01000005 	tsteq	r0, r5
 8bc:	04400607 	strbeq	r0, [r0], #-1543	; 0xfffff9f9
 8c0:	007c0800 	rsbseq	r0, ip, r0, lsl #16
 8c4:	9c010000 	stcls	0, cr0, [r1], {-0}
 8c8:	01006111 	tsteq	r0, r1, lsl r1
 8cc:	00690909 	rsbeq	r0, r9, r9, lsl #18
 8d0:	91020000 	mrsls	r0, (UNDEF: 2)
 8d4:	0472156c 	ldrbteq	r1, [r2], #-1388	; 0xfffffa94
 8d8:	00140800 	andseq	r0, r4, r0, lsl #16
 8dc:	08f00000 	ldmeq	r0!, {}^	; <UNPREDICTABLE>
 8e0:	69110000 	ldmdbvs	r1, {}	; <UNPREDICTABLE>
 8e4:	110e0100 	mrsne	r0, (UNDEF: 30)
 8e8:	00000069 	andeq	r0, r0, r9, rrx
 8ec:	00749102 	rsbseq	r9, r4, r2, lsl #2
 8f0:	00049216 	andeq	r9, r4, r6, lsl r2
 8f4:	00001408 	andeq	r1, r0, r8, lsl #8
 8f8:	00691100 	rsbeq	r1, r9, r0, lsl #2
 8fc:	69111001 	ldmdbvs	r1, {r0, ip}
 900:	02000000 	andeq	r0, r0, #0
 904:	00007091 	muleq	r0, r1, r0
 908:	00001e00 	andeq	r1, r0, r0, lsl #28
 90c:	55000200 	strpl	r0, [r0, #-512]	; 0xfffffe00
 910:	04000001 	streq	r0, [r0], #-1
 914:	0001b201 	andeq	fp, r1, r1, lsl #4
 918:	00000000 	andeq	r0, r0, r0
 91c:	00055700 	andeq	r5, r5, r0, lsl #14
 920:	0001b100 	andeq	fp, r1, r0, lsl #2
 924:	0005a100 	andeq	sl, r5, r0, lsl #2
 928:	Address 0x00000928 is out of bounds.


Disassembly of section .debug_abbrev:

00000000 <.debug_abbrev>:
   0:	25011101 	strcs	r1, [r1, #-257]	; 0xfffffeff
   4:	030b130e 	movweq	r1, #45838	; 0xb30e
   8:	110e1b0e 	tstne	lr, lr, lsl #22
   c:	10061201 	andne	r1, r6, r1, lsl #4
  10:	02000017 	andeq	r0, r0, #23
  14:	0b0b0024 	bleq	2c00ac <_Min_Stack_Size+0x2bfcac>
  18:	0e030b3e 	vmoveq.16	d3[0], r0
  1c:	16030000 	strne	r0, [r3], -r0
  20:	3a0e0300 	bcc	380c28 <_Min_Stack_Size+0x380828>
  24:	390b3b0b 	stmdbcc	fp, {r0, r1, r3, r8, r9, fp, ip, sp}
  28:	0013490b 	andseq	r4, r3, fp, lsl #18
  2c:	00240400 	eoreq	r0, r4, r0, lsl #8
  30:	0b3e0b0b 	bleq	f82c64 <_Min_Stack_Size+0xf82864>
  34:	00000803 	andeq	r0, r0, r3, lsl #16
  38:	49003505 	stmdbmi	r0, {r0, r2, r8, sl, ip, sp}
  3c:	06000013 			; <UNDEFINED> instruction: 0x06000013
  40:	13490026 	movtne	r0, #36902	; 0x9026
  44:	01070000 	mrseq	r0, (UNDEF: 7)
  48:	01134901 	tsteq	r3, r1, lsl #18
  4c:	08000013 	stmdaeq	r0, {r0, r1, r4}
  50:	13490021 	movtne	r0, #36897	; 0x9021
  54:	00000b2f 	andeq	r0, r0, pc, lsr #22
  58:	0b011309 	bleq	44c84 <_Min_Stack_Size+0x44884>
  5c:	3b0b3a0b 	blcc	2ce890 <_Min_Stack_Size+0x2ce490>
  60:	010b3905 	tsteq	fp, r5, lsl #18
  64:	0a000013 	beq	b8 <_Min_Heap_Size-0x148>
  68:	0e03000d 	cdpeq	0, 0, cr0, cr3, cr13, {0}
  6c:	053b0b3a 	ldreq	r0, [fp, #-2874]!	; 0xfffff4c6
  70:	13490b39 	movtne	r0, #39737	; 0x9b39
  74:	00000b38 	andeq	r0, r0, r8, lsr fp
  78:	03000d0b 	movweq	r0, #3339	; 0xd0b
  7c:	3b0b3a08 	blcc	2ce8a4 <_Min_Stack_Size+0x2ce4a4>
  80:	490b3905 	stmdbmi	fp, {r0, r2, r8, fp, ip, sp}
  84:	000b3813 	andeq	r3, fp, r3, lsl r8
  88:	00160c00 	andseq	r0, r6, r0, lsl #24
  8c:	0b3a0e03 	bleq	e838a0 <_Min_Stack_Size+0xe834a0>
  90:	0b39053b 	bleq	e41584 <_Min_Stack_Size+0xe41184>
  94:	00001349 	andeq	r1, r0, r9, asr #6
  98:	0b01130d 	bleq	44cd4 <_Min_Stack_Size+0x448d4>
  9c:	3b0b3a05 	blcc	2ce8b8 <_Min_Stack_Size+0x2ce4b8>
  a0:	010b3905 	tsteq	fp, r5, lsl #18
  a4:	0e000013 	mcreq	0, 0, r0, cr0, cr3, {0}
  a8:	0e03000d 	cdpeq	0, 0, cr0, cr3, cr13, {0}
  ac:	053b0b3a 	ldreq	r0, [fp, #-2874]!	; 0xfffff4c6
  b0:	13490b39 	movtne	r0, #39737	; 0x9b39
  b4:	00000538 	andeq	r0, r0, r8, lsr r5
  b8:	3f002e0f 	svccc	0x00002e0f
  bc:	3a0e0319 	bcc	380d28 <_Min_Stack_Size+0x380928>
  c0:	390b3b0b 	stmdbcc	fp, {r0, r1, r3, r8, r9, fp, ip, sp}
  c4:	1201110b 	andne	r1, r1, #-1073741822	; 0xc0000002
  c8:	97184006 	ldrls	r4, [r8, -r6]
  cc:	00001942 	andeq	r1, r0, r2, asr #18
  d0:	3f012e10 	svccc	0x00012e10
  d4:	3a0e0319 	bcc	380d40 <_Min_Stack_Size+0x380940>
  d8:	390b3b0b 	stmdbcc	fp, {r0, r1, r3, r8, r9, fp, ip, sp}
  dc:	1201110b 	andne	r1, r1, #-1073741822	; 0xc0000002
  e0:	97184006 	ldrls	r4, [r8, -r6]
  e4:	13011942 	movwne	r1, #6466	; 0x1942
  e8:	34110000 	ldrcc	r0, [r1], #-0
  ec:	3a080300 	bcc	200cf4 <_Min_Stack_Size+0x2008f4>
  f0:	390b3b0b 	stmdbcc	fp, {r0, r1, r3, r8, r9, fp, ip, sp}
  f4:	0213490b 	andseq	r4, r3, #180224	; 0x2c000
  f8:	12000018 	andne	r0, r0, #24
  fc:	193f012e 	ldmdbne	pc!, {r1, r2, r3, r5, r8}	; <UNPREDICTABLE>
 100:	0b3a0e03 	bleq	e83914 <_Min_Stack_Size+0xe83514>
 104:	0b390b3b 	bleq	e42df8 <_Min_Stack_Size+0xe429f8>
 108:	01111927 	tsteq	r1, r7, lsr #18
 10c:	18400612 	stmdane	r0, {r1, r4, r9, sl}^
 110:	01194296 			; <UNDEFINED> instruction: 0x01194296
 114:	13000013 	movwne	r0, #19
 118:	0e030034 	mcreq	0, 0, r0, cr3, cr4, {1}
 11c:	0b3b0b3a 	bleq	ec2e0c <_Min_Stack_Size+0xec2a0c>
 120:	13490b39 	movtne	r0, #39737	; 0x9b39
 124:	00001802 	andeq	r1, r0, r2, lsl #16
 128:	3f012e14 	svccc	0x00012e14
 12c:	3a0e0319 	bcc	380d98 <_Min_Stack_Size+0x380998>
 130:	390b3b0b 	stmdbcc	fp, {r0, r1, r3, r8, r9, fp, ip, sp}
 134:	1201110b 	andne	r1, r1, #-1073741822	; 0xc0000002
 138:	97184006 	ldrls	r4, [r8, -r6]
 13c:	00001942 	andeq	r1, r0, r2, asr #18
 140:	11010b15 	tstne	r1, r5, lsl fp
 144:	01061201 	tsteq	r6, r1, lsl #4
 148:	16000013 			; <UNDEFINED> instruction: 0x16000013
 14c:	0111010b 	tsteq	r1, fp, lsl #2
 150:	00000612 	andeq	r0, r0, r2, lsl r6
 154:	00110100 	andseq	r0, r1, r0, lsl #2
 158:	06550610 			; <UNDEFINED> instruction: 0x06550610
 15c:	0e1b0e03 	cdpeq	14, 1, cr0, cr11, cr3, {0}
 160:	05130e25 	ldreq	r0, [r3, #-3621]	; 0xfffff1db
 164:	Address 0x00000164 is out of bounds.


Disassembly of section .debug_aranges:

00000000 <.debug_aranges>:
   0:	0000001c 	andeq	r0, r0, ip, lsl r0
   4:	00000002 	andeq	r0, r0, r2
   8:	00040000 	andeq	r0, r4, r0
   c:	00000000 	andeq	r0, r0, r0
  10:	08000440 	stmdaeq	r0, {r6, sl}
  14:	000001c0 	andeq	r0, r0, r0, asr #3
	...
  20:	00000024 	andeq	r0, r0, r4, lsr #32
  24:	09090002 	stmdbeq	r9, {r1}
  28:	00040000 	andeq	r0, r4, r0
  2c:	00000000 	andeq	r0, r0, r0
  30:	08000a9c 	stmdaeq	r0, {r2, r3, r4, r7, r9, fp}
  34:	00000050 	andeq	r0, r0, r0, asr r0
  38:	08000aec 	stmdaeq	r0, {r2, r3, r5, r6, r7, r9, fp}
  3c:	00000002 	andeq	r0, r0, r2
	...

Disassembly of section .debug_line:

00000000 <.debug_line>:
   0:	000001ae 	andeq	r0, r0, lr, lsr #3
   4:	01140003 	tsteq	r4, r3
   8:	01020000 	mrseq	r0, (UNDEF: 2)
   c:	000d0efb 	strdeq	r0, [sp], -fp
  10:	01010101 	tsteq	r1, r1, lsl #2
  14:	01000000 	mrseq	r0, (UNDEF: 0)
  18:	43010000 	movwmi	r0, #4096	; 0x1000
  1c:	4f572f3a 	svcmi	0x00572f3a
  20:	522f4b52 	eorpl	r4, pc, #83968	; 0x14800
  24:	49424f45 	stmdbmi	r2, {r0, r2, r6, r8, r9, sl, fp, lr}^
  28:	55505f54 	ldrbpl	r5, [r0, #-3924]	; 0xfffff0ac
  2c:	45522f42 	ldrbmi	r2, [r2, #-3906]	; 0xfffff0be
  30:	5449424f 	strbpl	r4, [r9], #-591	; 0xfffffdb1
  34:	4255505f 	subsmi	r5, r5, #95	; 0x5f
  38:	626d652f 	rsbvs	r6, sp, #197132288	; 0xbc00000
  3c:	6f72702f 	svcvs	0x0072702f
  40:	7463656a 	strbtvc	r6, [r3], #-1386	; 0xfffffa96
  44:	756e2f73 	strbvc	r2, [lr, #-3955]!	; 0xfffff08d
  48:	6f656c63 	svcvs	0x00656c63
  4c:	3437685f 	ldrtcc	r6, [r7], #-2143	; 0xfffff7a1
  50:	75622f33 	strbvc	r2, [r2, #-3891]!	; 0xfffff0cd
  54:	2f646c69 	svccs	0x00646c69
  58:	63002e2e 	movwvs	r2, #3630	; 0xe2e
  5c:	72615c3a 	rsbvc	r5, r1, #14848	; 0x3a00
  60:	6f6e2d6d 	svcvs	0x006e2d6d
  64:	652d656e 	strvs	r6, [sp, #-1390]!	; 0xfffffa92
  68:	5c696261 	sfmpl	f6, 2, [r9], #-388	; 0xfffffe7c
  6c:	2d6d7261 	sfmcs	f7, 2, [sp, #-388]!	; 0xfffffe7c
  70:	656e6f6e 	strbvs	r6, [lr, #-3950]!	; 0xfffff092
  74:	6261652d 	rsbvs	r6, r1, #188743680	; 0xb400000
  78:	6e695c69 	cdpvs	12, 6, cr5, cr9, cr9, {3}
  7c:	64756c63 	ldrbtvs	r6, [r5], #-3171	; 0xfffff39d
  80:	616d5c65 	cmnvs	sp, r5, ror #24
  84:	6e696863 	cdpvs	8, 6, cr6, cr9, cr3, {3}
  88:	3a630065 	bcc	18c0224 <_Min_Stack_Size+0x18bfe24>
  8c:	6d72615c 	ldfvse	f6, [r2, #-368]!	; 0xfffffe90
  90:	6e6f6e2d 	cdpvs	14, 6, cr6, cr15, cr13, {1}
  94:	61652d65 	cmnvs	r5, r5, ror #26
  98:	615c6962 	cmpvs	ip, r2, ror #18
  9c:	6e2d6d72 	mcrvs	13, 1, r6, cr13, cr2, {3}
  a0:	2d656e6f 	stclcs	14, cr6, [r5, #-444]!	; 0xfffffe44
  a4:	69626165 	stmdbvs	r2!, {r0, r2, r5, r6, r8, sp, lr}^
  a8:	636e695c 	cmnvs	lr, #92, 18	; 0x170000
  ac:	6564756c 	strbvs	r7, [r4, #-1388]!	; 0xfffffa94
  b0:	7379735c 	cmnvc	r9, #92, 6	; 0x70000001
  b4:	5c3a6300 	ldcpl	3, cr6, [sl], #-0
  b8:	6b726f77 	blvs	1c9be9c <_Min_Stack_Size+0x1c9ba9c>
  bc:	6f65725c 	svcvs	0x0065725c
  c0:	5f746962 	svcpl	0x00746962
  c4:	5c627570 	cfstr64pl	mvdx7, [r2], #-448	; 0xfffffe40
  c8:	626f6572 	rsbvs	r6, pc, #478150656	; 0x1c800000
  cc:	705f7469 	subsvc	r7, pc, r9, ror #8
  d0:	655c6275 	ldrbvs	r6, [ip, #-629]	; 0xfffffd8b
  d4:	635c626d 	cmpvs	ip, #-805306362	; 0xd0000006
  d8:	635c6e6d 	cmpvs	ip, #1744	; 0x6d0
  dc:	0065726f 	rsbeq	r7, r5, pc, ror #4
  e0:	69616d00 	stmdbvs	r1!, {r8, sl, fp, sp, lr}^
  e4:	00632e6e 	rsbeq	r2, r3, lr, ror #28
  e8:	5f000001 	svcpl	0x00000001
  ec:	61666564 	cmnvs	r6, r4, ror #10
  f0:	5f746c75 	svcpl	0x00746c75
  f4:	65707974 	ldrbvs	r7, [r0, #-2420]!	; 0xfffff68c
  f8:	00682e73 	rsbeq	r2, r8, r3, ror lr
  fc:	5f000002 	svcpl	0x00000002
 100:	69647473 	stmdbvs	r4!, {r0, r1, r4, r5, r6, sl, ip, sp, lr}^
 104:	682e746e 	stmdavs	lr!, {r1, r2, r3, r5, r6, sl, ip, sp, lr}
 108:	00000300 	andeq	r0, r0, r0, lsl #6
 10c:	336d7473 	cmncc	sp, #1929379840	; 0x73000000
 110:	34376832 	ldrtcc	r6, [r7], #-2098	; 0xfffff7ce
 114:	2e787833 	mrccs	8, 3, r7, cr8, cr3, {1}
 118:	00040068 	andeq	r0, r4, r8, rrx
 11c:	01050000 	mrseq	r0, (UNDEF: 5)
 120:	40020500 	andmi	r0, r2, r0, lsl #10
 124:	19080004 	stmdbne	r8, {r2}
 128:	053d0905 	ldreq	r0, [sp, #-2309]!	; 0xfffff6fb
 12c:	05832f12 	streq	r2, [r3, #3858]	; 0xf12
 130:	11056815 	tstne	r5, r5, lsl r8
 134:	2e090567 	cfsh32cs	mvfx0, mvfx9, #55
 138:	02002305 	andeq	r2, r0, #335544320	; 0x14000000
 13c:	05200304 	streq	r0, [r0, #-772]!	; 0xfffffcfc
 140:	04020009 	streq	r0, [r2], #-9
 144:	15053c01 	strne	r3, [r5, #-3073]	; 0xfffff3ff
 148:	6711054b 	ldrvs	r0, [r1, -fp, asr #10]
 14c:	052e0905 	streq	r0, [lr, #-2309]!	; 0xfffff6fb
 150:	04020023 	streq	r0, [r2], #-35	; 0xffffffdd
 154:	09052003 	stmdbeq	r5, {r0, r1, sp}
 158:	01040200 	mrseq	r0, R12_usr
 15c:	4715053c 			; <UNDEFINED> instruction: 0x4715053c
 160:	05b40105 	ldreq	r0, [r4, #261]!	; 0x105
 164:	3d3d3e14 	ldccc	14, cr3, [sp, #-80]!	; 0xffffffb0
 168:	3d3d3d3d 	ldccc	13, cr3, [sp, #-244]!	; 0xffffff0c
 16c:	3d3d3d3d 	ldccc	13, cr3, [sp, #-244]!	; 0xffffff0c
 170:	3d3d3d3d 	ldccc	13, cr3, [sp, #-244]!	; 0xffffff0c
 174:	3d3d3d3d 	ldccc	13, cr3, [sp, #-244]!	; 0xffffff0c
 178:	3d3d3d3d 	ldccc	13, cr3, [sp, #-244]!	; 0xffffff0c
 17c:	2f2f3d3d 	svccs	0x002f3d3d
 180:	2f2f2f2f 	svccs	0x002f2f2f
 184:	2f2f2f2f 	svccs	0x002f2f2f
 188:	2f2f2f2f 	svccs	0x002f2f2f
 18c:	2f2f2f2f 	svccs	0x002f2f2f
 190:	302f2f2f 	eorcc	r2, pc, pc, lsr #30
 194:	302f2f2f 	eorcc	r2, pc, pc, lsr #30
 198:	2f2f2f2f 	svccs	0x002f2f2f
 19c:	1a030505 	bne	c15b8 <_Min_Stack_Size+0xc11b8>
 1a0:	2f01052e 	svccs	0x0001052e
 1a4:	3d09054d 	cfstr32cc	mvfx0, [r9, #-308]	; 0xfffffecc
 1a8:	852f0105 	strhi	r0, [pc, #-261]!	; ab <_Min_Heap_Size-0x155>
 1ac:	00040230 	andeq	r0, r4, r0, lsr r2
 1b0:	00a60101 	adceq	r0, r6, r1, lsl #2
 1b4:	00030000 	andeq	r0, r3, r0
 1b8:	00000060 	andeq	r0, r0, r0, rrx
 1bc:	0efb0102 	cdpeq	1, 15, cr0, cr11, cr2, {0}
 1c0:	0101000d 	tsteq	r1, sp
 1c4:	00000101 	andeq	r0, r0, r1, lsl #2
 1c8:	00000100 	andeq	r0, r0, r0, lsl #2
 1cc:	2f3a4301 	svccs	0x003a4301
 1d0:	4b524f57 	blmi	1493f34 <_Min_Stack_Size+0x1493b34>
 1d4:	4f45522f 	svcmi	0x0045522f
 1d8:	5f544942 	svcpl	0x00544942
 1dc:	2f425550 	svccs	0x00425550
 1e0:	424f4552 	submi	r4, pc, #343932928	; 0x14800000
 1e4:	505f5449 	subspl	r5, pc, r9, asr #8
 1e8:	652f4255 	strvs	r4, [pc, #-597]!	; ffffff9b <_estack+0xdffdff9b>
 1ec:	702f626d 	eorvc	r6, pc, sp, ror #4
 1f0:	656a6f72 	strbvs	r6, [sl, #-3954]!	; 0xfffff08e
 1f4:	2f737463 	svccs	0x00737463
 1f8:	6c63756e 	cfstr64vs	mvdx7, [r3], #-440	; 0xfffffe48
 1fc:	685f6f65 	ldmdavs	pc, {r0, r2, r5, r6, r8, r9, sl, fp, sp, lr}^	; <UNPREDICTABLE>
 200:	2f333437 	svccs	0x00333437
 204:	6c697562 	cfstr64vs	mvdx7, [r9], #-392	; 0xfffffe78
 208:	2e2e2f64 	cdpcs	15, 2, cr2, cr14, cr4, {3}
 20c:	74730000 	ldrbtvc	r0, [r3], #-0
 210:	75747261 	ldrbvc	r7, [r4, #-609]!	; 0xfffffd9f
 214:	00732e70 	rsbseq	r2, r3, r0, ror lr
 218:	00000001 	andeq	r0, r0, r1
 21c:	9c020500 	cfstr32ls	mvfx0, [r2], {-0}
 220:	0308000a 	movweq	r0, #32778	; 0x800a
 224:	3131013c 	teqcc	r1, ip, lsr r1
 228:	21212121 			; <UNDEFINED> instruction: 0x21212121
 22c:	23212123 			; <UNDEFINED> instruction: 0x23212123
 230:	21222121 			; <UNDEFINED> instruction: 0x21222121
 234:	21232121 			; <UNDEFINED> instruction: 0x21232121
 238:	30232123 	eorcc	r2, r3, r3, lsr #2
 23c:	2059032f 	subscs	r0, r9, pc, lsr #6
 240:	032f2f34 			; <UNDEFINED> instruction: 0x032f2f34
 244:	022f2e0e 	eoreq	r2, pc, #14, 28	; 0xe0
 248:	01010002 	tsteq	r1, r2
 24c:	ec020500 	cfstr32	mvfx0, [r2], {-0}
 250:	0308000a 	movweq	r0, #32778	; 0x800a
 254:	020100f0 	andeq	r0, r1, #240	; 0xf0
 258:	01010001 	tsteq	r1, r1

Disassembly of section .debug_str:

00000000 <.debug_str>:
   0:	44505550 	ldrbmi	r5, [r0], #-1360	; 0xfffffab0
   4:	42520052 	subsmi	r0, r2, #82	; 0x52
   8:	4343525f 	movtmi	r5, #12895	; 0x325f
   c:	4133445f 	teqmi	r3, pc, asr r4
  10:	4300524d 	movwmi	r5, #589	; 0x24d
  14:	4f572f3a 	svcmi	0x00572f3a
  18:	522f4b52 	eorpl	r4, pc, #83968	; 0x14800
  1c:	49424f45 	stmdbmi	r2, {r0, r2, r6, r8, r9, sl, fp, lr}^
  20:	55505f54 	ldrbpl	r5, [r0, #-3924]	; 0xfffff0ac
  24:	45522f42 	ldrbmi	r2, [r2, #-3906]	; 0xfffff0be
  28:	5449424f 	strbpl	r4, [r9], #-591	; 0xfffffdb1
  2c:	4255505f 	subsmi	r5, r5, #95	; 0x5f
  30:	626d652f 	rsbvs	r6, sp, #197132288	; 0xbc00000
  34:	6f72702f 	svcvs	0x0072702f
  38:	7463656a 	strbtvc	r6, [r3], #-1386	; 0xfffffa96
  3c:	756e2f73 	strbvc	r2, [lr, #-3955]!	; 0xfffff08d
  40:	6f656c63 	svcvs	0x00656c63
  44:	3437685f 	ldrtcc	r6, [r7], #-2143	; 0xfffff7a1
  48:	75622f33 	strbvc	r2, [r2, #-3891]!	; 0xfffff0cd
  4c:	2f646c69 	svccs	0x00646c69
  50:	6d2f2e2e 	stcvs	14, cr2, [pc, #-184]!	; ffffffa0 <_estack+0xdffdffa0>
  54:	2e6e6961 	vnmulcs.f16	s13, s28, s3	; <UNPREDICTABLE>
  58:	42520063 	subsmi	r0, r2, #99	; 0x63
  5c:	4343525f 	movtmi	r5, #12895	; 0x325f
  60:	4349435f 	movtmi	r4, #37727	; 0x935f
  64:	42520052 	subsmi	r0, r2, #82	; 0x52
  68:	4343525f 	movtmi	r5, #12895	; 0x325f
  6c:	4332445f 	teqmi	r2, #1593835520	; 0x5f000000
  70:	00524746 	subseq	r4, r2, r6, asr #14
  74:	525f4252 	subspl	r4, pc, #536870917	; 0x20000005
  78:	425f4343 	subsmi	r4, pc, #201326593	; 0xc000001
  7c:	00524344 	subseq	r4, r2, r4, asr #6
  80:	5059544f 	subspl	r5, r9, pc, asr #8
  84:	4d005245 	sfmmi	f5, 4, [r0, #-276]	; 0xfffffeec
  88:	5245444f 	subpl	r4, r5, #1325400064	; 0x4f000000
  8c:	6e6f6c00 	cdpvs	12, 6, cr6, cr15, cr0, {0}
  90:	6f6c2067 	svcvs	0x006c2067
  94:	7520676e 	strvc	r6, [r0, #-1902]!	; 0xfffff892
  98:	6769736e 	strbvs	r7, [r9, -lr, ror #6]!
  9c:	2064656e 	rsbcs	r6, r4, lr, ror #10
  a0:	00746e69 	rsbseq	r6, r4, r9, ror #28
  a4:	525f4252 	subspl	r4, pc, #536870917	; 0x20000005
  a8:	435f4343 	cmpmi	pc, #201326593	; 0xc000001
  ac:	00524746 	subseq	r4, r2, r6, asr #14
  b0:	525f4252 	subspl	r4, pc, #536870917	; 0x20000005
  b4:	415f4343 	cmpmi	pc, r3, asr #6
  b8:	4c344248 	lfmmi	f4, 4, [r4], #-288	; 0xfffffee0
  bc:	524e4550 	subpl	r4, lr, #80, 10	; 0x14000000
  c0:	5f425200 	svcpl	0x00425200
  c4:	5f434352 	svcpl	0x00434352
  c8:	43495343 	movtmi	r5, #37699	; 0x9343
  cc:	00524746 	subseq	r4, r2, r6, asr #14
  d0:	525f4252 	subspl	r4, pc, #536870917	; 0x20000005
  d4:	505f4343 	subspl	r4, pc, r3, asr #6
  d8:	46334c4c 	ldrtmi	r4, [r3], -ip, asr #24
  dc:	52434152 	subpl	r4, r3, #-2147483628	; 0x80000014
  e0:	5f425200 	svcpl	0x00425200
  e4:	5f434352 	svcpl	0x00434352
  e8:	33425041 	movtcc	r5, #8257	; 0x2041
  ec:	52545352 	subspl	r5, r4, #1207959553	; 0x48000001
  f0:	5f425200 	svcpl	0x00425200
  f4:	5f434352 	svcpl	0x00434352
  f8:	00524347 	subseq	r4, r2, r7, asr #6
  fc:	676e6f6c 	strbvs	r6, [lr, -ip, ror #30]!
 100:	6e6f6c20 	cdpvs	12, 6, cr6, cr15, cr0, {1}
 104:	6e692067 	cdpvs	0, 6, cr2, cr9, cr7, {3}
 108:	53420074 	movtpl	r0, #8308	; 0x2074
 10c:	52005252 	andpl	r5, r0, #536870917	; 0x20000005
 110:	43525f42 	cmpmi	r2, #264	; 0x108
 114:	4c505f43 	mrrcmi	15, 4, r5, r0, cr3
 118:	5246314c 	subpl	r3, r6, #76, 2
 11c:	00524341 	subseq	r4, r2, r1, asr #6
 120:	33434441 	movtcc	r4, #13377	; 0x3441
 124:	5152495f 	cmppl	r2, pc, asr r9
 128:	646e6148 	strbtvs	r6, [lr], #-328	; 0xfffffeb8
 12c:	0072656c 	rsbseq	r6, r2, ip, ror #10
 130:	45534552 	ldrbmi	r4, [r3, #-1362]	; 0xfffffaae
 134:	44455652 	strbmi	r5, [r5], #-1618	; 0xfffff9ae
 138:	52003131 	andpl	r3, r0, #1073741836	; 0x4000000c
 13c:	52455345 	subpl	r5, r5, #335544321	; 0x14000001
 140:	31444556 	cmpcc	r4, r6, asr r5
 144:	45520032 	ldrbmi	r0, [r2, #-50]	; 0xffffffce
 148:	56524553 			; <UNDEFINED> instruction: 0x56524553
 14c:	33314445 	teqcc	r1, #1157627904	; 0x45000000
 150:	5f425200 	svcpl	0x00425200
 154:	5f434352 	svcpl	0x00434352
 158:	33425041 	movtcc	r5, #8257	; 0x2041
 15c:	00524e45 	subseq	r4, r2, r5, asr #28
 160:	525f4252 	subspl	r4, pc, #536870917	; 0x20000005
 164:	415f4343 	cmpmi	pc, r3, asr #6
 168:	45324250 	ldrmi	r4, [r2, #-592]!	; 0xfffffdb0
 16c:	5200524e 	andpl	r5, r0, #-536870908	; 0xe0000004
 170:	43525f42 	cmpmi	r2, #264	; 0x108
 174:	53485f43 	movtpl	r5, #36675	; 0x8f43
 178:	47464349 	strbmi	r4, [r6, -r9, asr #6]
 17c:	42520052 	subsmi	r0, r2, #82	; 0x52
 180:	4343525f 	movtmi	r5, #12895	; 0x325f
 184:	4c4c505f 	mcrrmi	0, 5, r5, ip, cr15
 188:	56494432 			; <UNDEFINED> instruction: 0x56494432
 18c:	42520052 	subsmi	r0, r2, #82	; 0x52
 190:	4343525f 	movtmi	r5, #12895	; 0x325f
 194:	5253525f 	subspl	r5, r3, #-268435451	; 0xf0000005
 198:	5f425200 	svcpl	0x00425200
 19c:	5f434352 	svcpl	0x00434352
 1a0:	31425041 	cmpcc	r2, r1, asr #32
 1a4:	524e454c 	subpl	r4, lr, #76, 10	; 0x13000000
 1a8:	50534f00 	subspl	r4, r3, r0, lsl #30
 1ac:	52444545 	subpl	r4, r4, #289406976	; 0x11400000
 1b0:	5c3a4300 	ldcpl	3, cr4, [sl], #-0
 1b4:	4b524f57 	blmi	1493f18 <_Min_Stack_Size+0x1493b18>
 1b8:	4f45525c 	svcmi	0x0045525c
 1bc:	5f544942 	svcpl	0x00544942
 1c0:	5c425550 	cfstr64pl	mvdx5, [r2], {80}	; 0x50
 1c4:	424f4552 	submi	r4, pc, #343932928	; 0x14800000
 1c8:	505f5449 	subspl	r5, pc, r9, asr #8
 1cc:	655c4255 	ldrbvs	r4, [ip, #-597]	; 0xfffffdab
 1d0:	705c626d 	subsvc	r6, ip, sp, ror #4
 1d4:	656a6f72 	strbvs	r6, [sl, #-3954]!	; 0xfffff08e
 1d8:	5c737463 	cfldrdpl	mvd7, [r3], #-396	; 0xfffffe74
 1dc:	6c63756e 	cfstr64vs	mvdx7, [r3], #-440	; 0xfffffe48
 1e0:	685f6f65 	ldmdavs	pc, {r0, r2, r5, r6, r8, r9, sl, fp, sp, lr}^	; <UNPREDICTABLE>
 1e4:	5c333437 	cfldrspl	mvf3, [r3], #-220	; 0xffffff24
 1e8:	6c697562 	cfstr64vs	mvdx7, [r9], #-392	; 0xfffffe78
 1ec:	42520064 	subsmi	r0, r2, #100	; 0x64
 1f0:	4343525f 	movtmi	r5, #12895	; 0x325f
 1f4:	4549435f 	strbmi	r4, [r9, #-863]	; 0xfffffca1
 1f8:	5f5f0052 	svcpl	0x005f0052
 1fc:	746e6975 	strbtvc	r6, [lr], #-2421	; 0xfffff68b
 200:	745f3233 	ldrbvc	r3, [pc], #-563	; 208 <_Min_Heap_Size+0x8>
 204:	5f425200 	svcpl	0x00425200
 208:	5f434352 	svcpl	0x00434352
 20c:	31424841 	cmpcc	r2, r1, asr #16
 210:	4e45504c 	cdpmi	0, 4, cr5, cr5, cr12, {2}
 214:	42520052 	subsmi	r0, r2, #82	; 0x52
 218:	4343525f 	movtmi	r5, #12895	; 0x325f
 21c:	4c4c505f 	mcrrmi	0, 5, r5, ip, cr15
 220:	41524632 	cmpmi	r2, r2, lsr r6
 224:	47005243 	strmi	r5, [r0, -r3, asr #4]
 228:	5f4f4950 	svcpl	0x004f4950
 22c:	65707954 	ldrbvs	r7, [r0, #-2388]!	; 0xfffff6ac
 230:	00666544 	rsbeq	r6, r6, r4, asr #10
 234:	525f4252 	subspl	r4, pc, #536870917	; 0x20000005
 238:	415f4343 	cmpmi	pc, r3, asr #6
 23c:	4c314250 	lfmmi	f4, 4, [r1], #-320	; 0xfffffec0
 240:	52545352 	subspl	r5, r4, #1207959553	; 0x48000001
 244:	43435200 	movtmi	r5, #12800	; 0x3200
 248:	7079545f 	rsbsvc	r5, r9, pc, asr r4
 24c:	66654465 	strbtvs	r4, [r5], -r5, ror #8
 250:	4b434c00 	blmi	10d3258 <_Min_Stack_Size+0x10d2e58>
 254:	4e470052 	mcrmi	0, 2, r0, cr7, cr2, {2}
 258:	31432055 	qdaddcc	r2, r5, r3
 25c:	30312037 	eorscc	r2, r1, r7, lsr r0
 260:	312e332e 			; <UNDEFINED> instruction: 0x312e332e
 264:	32303220 	eorscc	r3, r0, #32, 4
 268:	32383031 	eorscc	r3, r8, #49	; 0x31
 26c:	72282034 	eorvc	r2, r8, #52	; 0x34
 270:	61656c65 	cmnvs	r5, r5, ror #24
 274:	20296573 	eorcs	r6, r9, r3, ror r5
 278:	68746d2d 	ldmdavs	r4!, {r0, r2, r3, r5, r8, sl, fp, sp, lr}^
 27c:	20626d75 	rsbcs	r6, r2, r5, ror sp
 280:	70636d2d 	rsbvc	r6, r3, sp, lsr #26
 284:	6f633d75 	svcvs	0x00633d75
 288:	78657472 	stmdavc	r5!, {r1, r4, r5, r6, sl, ip, sp, lr}^
 28c:	20376d2d 	eorscs	r6, r7, sp, lsr #26
 290:	6c666d2d 	stclvs	13, cr6, [r6], #-180	; 0xffffff4c
 294:	2d74616f 	ldfcse	f6, [r4, #-444]!	; 0xfffffe44
 298:	3d696261 	sfmcc	f6, 2, [r9, #-388]!	; 0xfffffe7c
 29c:	74666f73 	strbtvc	r6, [r6], #-3955	; 0xfffff08d
 2a0:	616d2d20 	cmnvs	sp, r0, lsr #26
 2a4:	3d686372 	stclcc	3, cr6, [r8, #-456]!	; 0xfffffe38
 2a8:	766d7261 	strbtvc	r7, [sp], -r1, ror #4
 2ac:	6d2d6537 	cfstr32vs	mvfx6, [sp, #-220]!	; 0xffffff24
 2b0:	20672d20 	rsbcs	r2, r7, r0, lsr #26
 2b4:	00304f2d 	eorseq	r4, r0, sp, lsr #30
 2b8:	525f4252 	subspl	r4, pc, #536870917	; 0x20000005
 2bc:	415f4343 	cmpmi	pc, r3, asr #6
 2c0:	52324248 	eorspl	r4, r2, #72, 4	; 0x80000004
 2c4:	00525453 	subseq	r5, r2, r3, asr r4
 2c8:	726f6873 	rsbvc	r6, pc, #7536640	; 0x730000
 2cc:	6e752074 	mrcvs	0, 3, r2, cr5, cr4, {3}
 2d0:	6e676973 			; <UNDEFINED> instruction: 0x6e676973
 2d4:	69206465 	stmdbvs	r0!, {r0, r2, r5, r6, sl, sp, lr}
 2d8:	5200746e 	andpl	r7, r0, #1845493760	; 0x6e000000
 2dc:	43525f42 	cmpmi	r2, #264	; 0x108
 2e0:	50415f43 	subpl	r5, r1, r3, asr #30
 2e4:	4c483142 	stfmie	f3, [r8], {66}	; 0x42
 2e8:	524e4550 	subpl	r4, lr, #80, 10	; 0x14000000
 2ec:	5f425200 	svcpl	0x00425200
 2f0:	5f434352 	svcpl	0x00434352
 2f4:	34424841 	strbcc	r4, [r2], #-2113	; 0xfffff7bf
 2f8:	00524e45 	subseq	r4, r2, r5, asr #28
 2fc:	525f4252 	subspl	r4, pc, #536870917	; 0x20000005
 300:	435f4343 	cmpmi	pc, #201326593	; 0xc000001
 304:	00524649 	subseq	r4, r2, r9, asr #12
 308:	726f6873 	rsbvc	r6, pc, #7536640	; 0x730000
 30c:	6e692074 	mcrvs	0, 3, r2, cr9, cr4, {3}
 310:	42520074 	subsmi	r0, r2, #116	; 0x74
 314:	4343525f 	movtmi	r5, #12895	; 0x325f
 318:	4248415f 	submi	r4, r8, #-1073741801	; 0xc0000017
 31c:	54535233 	ldrbpl	r5, [r3], #-563	; 0xfffffdcd
 320:	42520052 	subsmi	r0, r2, #82	; 0x52
 324:	4343525f 	movtmi	r5, #12895	; 0x325f
 328:	4250415f 	subsmi	r4, r0, #-1073741801	; 0xc0000017
 32c:	54535232 	ldrbpl	r5, [r3], #-562	; 0xfffffdce
 330:	42520052 	subsmi	r0, r2, #82	; 0x52
 334:	4343525f 	movtmi	r5, #12895	; 0x325f
 338:	4248415f 	submi	r4, r8, #-1073741801	; 0xc0000017
 33c:	524e4533 	subpl	r4, lr, #213909504	; 0xcc00000
 340:	5f425200 	svcpl	0x00425200
 344:	5f434352 	svcpl	0x00434352
 348:	314c4c50 	cmpcc	ip, r0, asr ip
 34c:	52564944 	subspl	r4, r6, #68, 18	; 0x110000
 350:	5f425200 	svcpl	0x00425200
 354:	5f434352 	svcpl	0x00434352
 358:	43433144 	movtmi	r3, #12612	; 0x3144
 35c:	00525049 	subseq	r5, r2, r9, asr #32
 360:	525f4252 	subspl	r4, pc, #536870917	; 0x20000005
 364:	445f4343 	ldrbmi	r4, [pc], #-835	; 36c <_Min_Heap_Size+0x16c>
 368:	49434332 	stmdbmi	r3, {r1, r4, r5, r8, r9, lr}^
 36c:	00523150 	subseq	r3, r2, r0, asr r1
 370:	525f4252 	subspl	r4, pc, #536870917	; 0x20000005
 374:	435f4343 	cmpmi	pc, #201326593	; 0xc000001
 378:	52435252 	subpl	r5, r3, #536870917	; 0x20000005
 37c:	53455200 	movtpl	r5, #20992	; 0x5200
 380:	45565245 	ldrbmi	r5, [r6, #-581]	; 0xfffffdbb
 384:	52003144 	andpl	r3, r0, #68, 2
 388:	52455345 	subpl	r5, r5, #335544321	; 0x14000001
 38c:	32444556 	subcc	r4, r4, #360710144	; 0x15800000
 390:	53455200 	movtpl	r5, #20992	; 0x5200
 394:	45565245 	ldrbmi	r5, [r6, #-581]	; 0xfffffdbb
 398:	52003344 	andpl	r3, r0, #68, 6	; 0x10000001
 39c:	52455345 	subpl	r5, r5, #335544321	; 0x14000001
 3a0:	34444556 	strbcc	r4, [r4], #-1366	; 0xfffffaaa
 3a4:	53455200 	movtpl	r5, #20992	; 0x5200
 3a8:	45565245 	ldrbmi	r5, [r6, #-581]	; 0xfffffdbb
 3ac:	52003544 	andpl	r3, r0, #68, 10	; 0x11000000
 3b0:	52455345 	subpl	r5, r5, #335544321	; 0x14000001
 3b4:	36444556 			; <UNDEFINED> instruction: 0x36444556
 3b8:	4d495400 	cfstrdmi	mvd5, [r9, #-0]
 3bc:	495f3531 	ldmdbmi	pc, {r0, r4, r5, r8, sl, ip, sp}^	; <UNPREDICTABLE>
 3c0:	61485152 	cmpvs	r8, r2, asr r1
 3c4:	656c646e 	strbvs	r6, [ip, #-1134]!	; 0xfffffb92
 3c8:	45520072 	ldrbmi	r0, [r2, #-114]	; 0xffffff8e
 3cc:	56524553 			; <UNDEFINED> instruction: 0x56524553
 3d0:	00384445 	eorseq	r4, r8, r5, asr #8
 3d4:	74737953 	ldrbtvc	r7, [r3], #-2387	; 0xfffff6ad
 3d8:	6e496d65 	cdpvs	13, 4, cr6, cr9, cr5, {3}
 3dc:	52007469 	andpl	r7, r0, #1761607680	; 0x69000000
 3e0:	43525f42 	cmpmi	r2, #264	; 0x108
 3e4:	48415f43 	stmdami	r1, {r0, r1, r6, r8, r9, sl, fp, ip, lr}^
 3e8:	4e453242 	cdpmi	2, 4, cr3, cr5, cr2, {2}
 3ec:	42520052 	subsmi	r0, r2, #82	; 0x52
 3f0:	4343525f 	movtmi	r5, #12895	; 0x325f
 3f4:	4248415f 	submi	r4, r8, #-1073741801	; 0xc0000017
 3f8:	54535234 	ldrbpl	r5, [r3], #-564	; 0xfffffdcc
 3fc:	6e750052 	mrcvs	0, 3, r0, cr5, cr2, {2}
 400:	6e676973 			; <UNDEFINED> instruction: 0x6e676973
 404:	63206465 			; <UNDEFINED> instruction: 0x63206465
 408:	00726168 	rsbseq	r6, r2, r8, ror #2
 40c:	525f4252 	subspl	r4, pc, #536870917	; 0x20000005
 410:	445f4343 	ldrbmi	r4, [pc], #-835	; 418 <_Min_Stack_Size+0x18>
 414:	47464333 	smlaldxmi	r4, r6, r3, r3
 418:	42520052 	subsmi	r0, r2, #82	; 0x52
 41c:	4343525f 	movtmi	r5, #12895	; 0x325f
 420:	0052435f 	subseq	r4, r2, pc, asr r3
 424:	525f4252 	subspl	r4, pc, #536870917	; 0x20000005
 428:	505f4343 	subspl	r4, pc, r3, asr #6
 42c:	4b434c4c 	blmi	10d3564 <_Min_Stack_Size+0x10d3164>
 430:	524c4553 	subpl	r4, ip, #348127232	; 0x14c00000
 434:	5f425200 	svcpl	0x00425200
 438:	5f434352 	svcpl	0x00434352
 43c:	46433144 	strbmi	r3, [r3], -r4, asr #2
 440:	52005247 	andpl	r5, r0, #1879048196	; 0x70000004
 444:	43525f42 	cmpmi	r2, #264	; 0x108
 448:	50415f43 	subpl	r5, r1, r3, asr #30
 44c:	45483142 	strbmi	r3, [r8, #-322]	; 0xfffffebe
 450:	5200524e 	andpl	r5, r0, #-536870908	; 0xe0000004
 454:	43525f42 	cmpmi	r2, #264	; 0x108
 458:	32445f43 	subcc	r5, r4, #268	; 0x10c
 45c:	50494343 	subpl	r4, r9, r3, asr #6
 460:	52005232 	andpl	r5, r0, #536870915	; 0x20000003
 464:	43525f42 	cmpmi	r2, #264	; 0x108
 468:	50415f43 	subpl	r5, r1, r3, asr #30
 46c:	4c4c3142 	stfmie	f3, [ip], {66}	; 0x42
 470:	524e4550 	subpl	r4, lr, #80, 10	; 0x14000000
 474:	5f425200 	svcpl	0x00425200
 478:	5f434352 	svcpl	0x00434352
 47c:	32425041 	subcc	r5, r2, #65	; 0x41
 480:	4e45504c 	cdpmi	0, 4, cr5, cr5, cr12, {2}
 484:	42520052 	subsmi	r0, r2, #82	; 0x52
 488:	4343525f 	movtmi	r5, #12895	; 0x325f
 48c:	4248415f 	submi	r4, r8, #-1073741801	; 0xc0000017
 490:	524e4531 	subpl	r4, lr, #205520896	; 0xc400000
 494:	5f425200 	svcpl	0x00425200
 498:	5f434352 	svcpl	0x00434352
 49c:	31424841 	cmpcc	r2, r1, asr #16
 4a0:	52545352 	subspl	r5, r4, #1207959553	; 0x48000001
 4a4:	5f425200 	svcpl	0x00425200
 4a8:	5f434352 	svcpl	0x00434352
 4ac:	34425041 	strbcc	r5, [r2], #-65	; 0xffffffbf
 4b0:	52545352 	subspl	r5, r4, #1207959553	; 0x48000001
 4b4:	5f425200 	svcpl	0x00425200
 4b8:	5f434352 	svcpl	0x00434352
 4bc:	434c4c50 	movtmi	r4, #52304	; 0xcc50
 4c0:	00524746 	subseq	r4, r2, r6, asr #14
 4c4:	525f4252 	subspl	r4, pc, #536870917	; 0x20000005
 4c8:	445f4343 	ldrbmi	r4, [pc], #-835	; 4d0 <_Min_Stack_Size+0xd0>
 4cc:	49434333 	stmdbmi	r3, {r0, r1, r4, r5, r8, r9, lr}^
 4d0:	52005250 	andpl	r5, r0, #80, 4
 4d4:	43525f42 	cmpmi	r2, #264	; 0x108
 4d8:	50415f43 	subpl	r5, r1, r3, asr #30
 4dc:	52483142 	subpl	r3, r8, #-2147483632	; 0x80000010
 4e0:	00525453 	subseq	r5, r2, r3, asr r4
 4e4:	525f4252 	subspl	r4, pc, #536870917	; 0x20000005
 4e8:	415f4343 	cmpmi	pc, r3, asr #6
 4ec:	4c324248 	lfmmi	f4, 4, [r2], #-288	; 0xfffffee0
 4f0:	524e4550 	subpl	r4, lr, #80, 10	; 0x14000000
 4f4:	5f425200 	svcpl	0x00425200
 4f8:	5f434352 	svcpl	0x00434352
 4fc:	33425041 	movtcc	r5, #8257	; 0x2041
 500:	4e45504c 	cdpmi	0, 4, cr5, cr5, cr12, {2}
 504:	42520052 	subsmi	r0, r2, #82	; 0x52
 508:	4343525f 	movtmi	r5, #12895	; 0x325f
 50c:	4c4c505f 	mcrrmi	0, 5, r5, ip, cr15
 510:	56494433 			; <UNDEFINED> instruction: 0x56494433
 514:	42520052 	subsmi	r0, r2, #82	; 0x52
 518:	4343525f 	movtmi	r5, #12895	; 0x325f
 51c:	5253435f 	subspl	r4, r3, #2080374785	; 0x7c000001
 520:	69616d00 	stmdbvs	r1!, {r8, sl, fp, sp, lr}^
 524:	4252006e 	subsmi	r0, r2, #110	; 0x6e
 528:	4343525f 	movtmi	r5, #12895	; 0x325f
 52c:	4248415f 	submi	r4, r8, #-1073741801	; 0xc0000017
 530:	45504c33 	ldrbmi	r4, [r0, #-3123]	; 0xfffff3cd
 534:	5200524e 	andpl	r5, r0, #-536870908	; 0xe0000004
 538:	43525f42 	cmpmi	r2, #264	; 0x108
 53c:	50415f43 	subpl	r5, r1, r3, asr #30
 540:	504c3442 	subpl	r3, ip, r2, asr #8
 544:	00524e45 	subseq	r4, r2, r5, asr #28
 548:	525f4252 	subspl	r4, pc, #536870917	; 0x20000005
 54c:	415f4343 	cmpmi	pc, r3, asr #6
 550:	45344250 	ldrmi	r4, [r4, #-592]!	; 0xfffffdb0
 554:	4300524e 	movwmi	r5, #590	; 0x24e
 558:	4f572f3a 	svcmi	0x00572f3a
 55c:	522f4b52 	eorpl	r4, pc, #83968	; 0x14800
 560:	49424f45 	stmdbmi	r2, {r0, r2, r6, r8, r9, sl, fp, lr}^
 564:	55505f54 	ldrbpl	r5, [r0, #-3924]	; 0xfffff0ac
 568:	45522f42 	ldrbmi	r2, [r2, #-3906]	; 0xfffff0be
 56c:	5449424f 	strbpl	r4, [r9], #-591	; 0xfffffdb1
 570:	4255505f 	subsmi	r5, r5, #95	; 0x5f
 574:	626d652f 	rsbvs	r6, sp, #197132288	; 0xbc00000
 578:	6f72702f 	svcvs	0x0072702f
 57c:	7463656a 	strbtvc	r6, [r3], #-1386	; 0xfffffa96
 580:	756e2f73 	strbvc	r2, [lr, #-3955]!	; 0xfffff08d
 584:	6f656c63 	svcvs	0x00656c63
 588:	3437685f 	ldrtcc	r6, [r7], #-2143	; 0xfffff7a1
 58c:	75622f33 	strbvc	r2, [r2, #-3891]!	; 0xfffff0cd
 590:	2f646c69 	svccs	0x00646c69
 594:	735c2e2e 	cmpvc	ip, #736	; 0x2e0
 598:	74726174 	ldrbtvc	r6, [r2], #-372	; 0xfffffe8c
 59c:	732e7075 			; <UNDEFINED> instruction: 0x732e7075
 5a0:	554e4700 	strbpl	r4, [lr, #-1792]	; 0xfffff900
 5a4:	20534120 	subscs	r4, r3, r0, lsr #2
 5a8:	36332e32 			; <UNDEFINED> instruction: 0x36332e32
 5ac:	Address 0x000005ac is out of bounds.


Disassembly of section .comment:

00000000 <.comment>:
   0:	3a434347 	bcc	10d0d24 <_Min_Stack_Size+0x10d0924>
   4:	4e472820 	cdpmi	8, 4, cr2, cr7, cr0, {1}
   8:	72412055 	subvc	r2, r1, #85	; 0x55
   c:	6d45206d 	stclvs	0, cr2, [r5, #-436]	; 0xfffffe4c
  10:	64646562 	strbtvs	r6, [r4], #-1378	; 0xfffffa9e
  14:	54206465 	strtpl	r6, [r0], #-1125	; 0xfffffb9b
  18:	636c6f6f 	cmnvs	ip, #444	; 0x1bc
  1c:	6e696168 	powvsez	f6, f1, #0.0
  20:	2e303120 	rsfcssp	f3, f0, f0
  24:	30322d33 	eorscc	r2, r2, r3, lsr sp
  28:	312e3132 			; <UNDEFINED> instruction: 0x312e3132
  2c:	31202930 			; <UNDEFINED> instruction: 0x31202930
  30:	2e332e30 	mrccs	14, 1, r2, cr3, cr0, {1}
  34:	30322031 	eorscc	r2, r2, r1, lsr r0
  38:	38303132 	ldmdacc	r0!, {r1, r4, r5, r8, ip, sp}
  3c:	28203432 	stmdacs	r0!, {r1, r4, r5, sl, ip, sp}
  40:	656c6572 	strbvs	r6, [ip, #-1394]!	; 0xfffffa8e
  44:	29657361 	stmdbcs	r5!, {r0, r5, r6, r8, r9, ip, sp, lr}^
	...

Disassembly of section .debug_ranges:

00000000 <.debug_ranges>:
   0:	ffffffff 			; <UNDEFINED> instruction: 0xffffffff
   4:	00000000 	andeq	r0, r0, r0
   8:	08000a9c 	stmdaeq	r0, {r2, r3, r4, r7, r9, fp}
   c:	08000aec 	stmdaeq	r0, {r2, r3, r5, r6, r7, r9, fp}
  10:	08000aec 	stmdaeq	r0, {r2, r3, r5, r6, r7, r9, fp}
  14:	08000aee 	stmdaeq	r0, {r1, r2, r3, r5, r6, r7, r9, fp}
	...
