
disco_f407g.elf:     file format elf32-littlearm


Disassembly of section .isr_vector:

08000000 <g_pfnVectors>:
 8000000:	20020000 	andcs	r0, r2, r0
 8000004:	080007e5 	stmdaeq	r0, {r0, r2, r5, r6, r7, r8, r9, sl}
 8000008:	08000835 	stmdaeq	r0, {r0, r2, r4, r5, fp}
 800000c:	08000835 	stmdaeq	r0, {r0, r2, r4, r5, fp}
 8000010:	08000835 	stmdaeq	r0, {r0, r2, r4, r5, fp}
 8000014:	08000835 	stmdaeq	r0, {r0, r2, r4, r5, fp}
 8000018:	08000835 	stmdaeq	r0, {r0, r2, r4, r5, fp}
	...
 800002c:	08000835 	stmdaeq	r0, {r0, r2, r4, r5, fp}
 8000030:	08000835 	stmdaeq	r0, {r0, r2, r4, r5, fp}
 8000034:	00000000 	andeq	r0, r0, r0
 8000038:	08000835 	stmdaeq	r0, {r0, r2, r4, r5, fp}
 800003c:	08000835 	stmdaeq	r0, {r0, r2, r4, r5, fp}
 8000040:	08000835 	stmdaeq	r0, {r0, r2, r4, r5, fp}
 8000044:	08000835 	stmdaeq	r0, {r0, r2, r4, r5, fp}
 8000048:	08000835 	stmdaeq	r0, {r0, r2, r4, r5, fp}
 800004c:	08000835 	stmdaeq	r0, {r0, r2, r4, r5, fp}
 8000050:	08000835 	stmdaeq	r0, {r0, r2, r4, r5, fp}
 8000054:	08000835 	stmdaeq	r0, {r0, r2, r4, r5, fp}
 8000058:	08000835 	stmdaeq	r0, {r0, r2, r4, r5, fp}
 800005c:	08000835 	stmdaeq	r0, {r0, r2, r4, r5, fp}
 8000060:	08000835 	stmdaeq	r0, {r0, r2, r4, r5, fp}
 8000064:	08000835 	stmdaeq	r0, {r0, r2, r4, r5, fp}
 8000068:	08000835 	stmdaeq	r0, {r0, r2, r4, r5, fp}
 800006c:	08000835 	stmdaeq	r0, {r0, r2, r4, r5, fp}
 8000070:	08000835 	stmdaeq	r0, {r0, r2, r4, r5, fp}
 8000074:	08000835 	stmdaeq	r0, {r0, r2, r4, r5, fp}
 8000078:	08000835 	stmdaeq	r0, {r0, r2, r4, r5, fp}
 800007c:	08000835 	stmdaeq	r0, {r0, r2, r4, r5, fp}
 8000080:	08000835 	stmdaeq	r0, {r0, r2, r4, r5, fp}
 8000084:	08000835 	stmdaeq	r0, {r0, r2, r4, r5, fp}
 8000088:	08000835 	stmdaeq	r0, {r0, r2, r4, r5, fp}
 800008c:	08000835 	stmdaeq	r0, {r0, r2, r4, r5, fp}
 8000090:	08000835 	stmdaeq	r0, {r0, r2, r4, r5, fp}
 8000094:	08000835 	stmdaeq	r0, {r0, r2, r4, r5, fp}
 8000098:	08000835 	stmdaeq	r0, {r0, r2, r4, r5, fp}
 800009c:	08000835 	stmdaeq	r0, {r0, r2, r4, r5, fp}
 80000a0:	08000835 	stmdaeq	r0, {r0, r2, r4, r5, fp}
 80000a4:	08000835 	stmdaeq	r0, {r0, r2, r4, r5, fp}
 80000a8:	08000835 	stmdaeq	r0, {r0, r2, r4, r5, fp}
 80000ac:	08000835 	stmdaeq	r0, {r0, r2, r4, r5, fp}
 80000b0:	08000835 	stmdaeq	r0, {r0, r2, r4, r5, fp}
 80000b4:	08000835 	stmdaeq	r0, {r0, r2, r4, r5, fp}
 80000b8:	08000835 	stmdaeq	r0, {r0, r2, r4, r5, fp}
 80000bc:	08000835 	stmdaeq	r0, {r0, r2, r4, r5, fp}
 80000c0:	08000835 	stmdaeq	r0, {r0, r2, r4, r5, fp}
 80000c4:	08000835 	stmdaeq	r0, {r0, r2, r4, r5, fp}
 80000c8:	08000835 	stmdaeq	r0, {r0, r2, r4, r5, fp}
 80000cc:	08000835 	stmdaeq	r0, {r0, r2, r4, r5, fp}
 80000d0:	08000835 	stmdaeq	r0, {r0, r2, r4, r5, fp}
 80000d4:	08000835 	stmdaeq	r0, {r0, r2, r4, r5, fp}
 80000d8:	08000835 	stmdaeq	r0, {r0, r2, r4, r5, fp}
 80000dc:	08000835 	stmdaeq	r0, {r0, r2, r4, r5, fp}
 80000e0:	08000835 	stmdaeq	r0, {r0, r2, r4, r5, fp}
 80000e4:	08000835 	stmdaeq	r0, {r0, r2, r4, r5, fp}
 80000e8:	08000835 	stmdaeq	r0, {r0, r2, r4, r5, fp}
 80000ec:	08000835 	stmdaeq	r0, {r0, r2, r4, r5, fp}
 80000f0:	08000835 	stmdaeq	r0, {r0, r2, r4, r5, fp}
 80000f4:	08000835 	stmdaeq	r0, {r0, r2, r4, r5, fp}
 80000f8:	08000835 	stmdaeq	r0, {r0, r2, r4, r5, fp}
 80000fc:	08000835 	stmdaeq	r0, {r0, r2, r4, r5, fp}
 8000100:	08000835 	stmdaeq	r0, {r0, r2, r4, r5, fp}
 8000104:	08000835 	stmdaeq	r0, {r0, r2, r4, r5, fp}
 8000108:	08000835 	stmdaeq	r0, {r0, r2, r4, r5, fp}
 800010c:	08000835 	stmdaeq	r0, {r0, r2, r4, r5, fp}
 8000110:	08000835 	stmdaeq	r0, {r0, r2, r4, r5, fp}
 8000114:	08000835 	stmdaeq	r0, {r0, r2, r4, r5, fp}
 8000118:	08000835 	stmdaeq	r0, {r0, r2, r4, r5, fp}
 800011c:	08000835 	stmdaeq	r0, {r0, r2, r4, r5, fp}
 8000120:	08000835 	stmdaeq	r0, {r0, r2, r4, r5, fp}
 8000124:	08000835 	stmdaeq	r0, {r0, r2, r4, r5, fp}
 8000128:	08000835 	stmdaeq	r0, {r0, r2, r4, r5, fp}
 800012c:	08000835 	stmdaeq	r0, {r0, r2, r4, r5, fp}
 8000130:	08000835 	stmdaeq	r0, {r0, r2, r4, r5, fp}
 8000134:	08000835 	stmdaeq	r0, {r0, r2, r4, r5, fp}
 8000138:	08000835 	stmdaeq	r0, {r0, r2, r4, r5, fp}
 800013c:	08000835 	stmdaeq	r0, {r0, r2, r4, r5, fp}
 8000140:	08000835 	stmdaeq	r0, {r0, r2, r4, r5, fp}
 8000144:	08000835 	stmdaeq	r0, {r0, r2, r4, r5, fp}
 8000148:	08000835 	stmdaeq	r0, {r0, r2, r4, r5, fp}
 800014c:	08000835 	stmdaeq	r0, {r0, r2, r4, r5, fp}
 8000150:	08000835 	stmdaeq	r0, {r0, r2, r4, r5, fp}
 8000154:	08000835 	stmdaeq	r0, {r0, r2, r4, r5, fp}
 8000158:	08000835 	stmdaeq	r0, {r0, r2, r4, r5, fp}
 800015c:	08000835 	stmdaeq	r0, {r0, r2, r4, r5, fp}
 8000160:	08000835 	stmdaeq	r0, {r0, r2, r4, r5, fp}
 8000164:	08000835 	stmdaeq	r0, {r0, r2, r4, r5, fp}
 8000168:	08000835 	stmdaeq	r0, {r0, r2, r4, r5, fp}
 800016c:	08000835 	stmdaeq	r0, {r0, r2, r4, r5, fp}
 8000170:	08000835 	stmdaeq	r0, {r0, r2, r4, r5, fp}
 8000174:	08000835 	stmdaeq	r0, {r0, r2, r4, r5, fp}
 8000178:	08000835 	stmdaeq	r0, {r0, r2, r4, r5, fp}
 800017c:	00000000 	andeq	r0, r0, r0
 8000180:	08000835 	stmdaeq	r0, {r0, r2, r4, r5, fp}
 8000184:	08000835 	stmdaeq	r0, {r0, r2, r4, r5, fp}

Disassembly of section .text:

08000188 <__do_global_dtors_aux>:
 8000188:	e92d4010 	push	{r4, lr}
 800018c:	e59f4028 	ldr	r4, [pc, #40]	; 80001bc <__do_global_dtors_aux+0x34>
 8000190:	e5d43000 	ldrb	r3, [r4]
 8000194:	e3530000 	cmp	r3, #0
 8000198:	1a000005 	bne	80001b4 <__do_global_dtors_aux+0x2c>
 800019c:	e59f301c 	ldr	r3, [pc, #28]	; 80001c0 <__do_global_dtors_aux+0x38>
 80001a0:	e3530000 	cmp	r3, #0
 80001a4:	159f0018 	ldrne	r0, [pc, #24]	; 80001c4 <__do_global_dtors_aux+0x3c>
 80001a8:	11a00000 	movne	r0, r0
 80001ac:	e3a03001 	mov	r3, #1
 80001b0:	e5c43000 	strb	r3, [r4]
 80001b4:	e8bd4010 	pop	{r4, lr}
 80001b8:	e12fff1e 	bx	lr
 80001bc:	20000434 	andcs	r0, r0, r4, lsr r4
 80001c0:	00000000 	andeq	r0, r0, r0
 80001c4:	0800083c 	stmdaeq	r0, {r2, r3, r4, r5, fp}

080001c8 <frame_dummy>:
 80001c8:	e59f301c 	ldr	r3, [pc, #28]	; 80001ec <frame_dummy+0x24>
 80001cc:	e3530000 	cmp	r3, #0
 80001d0:	012fff1e 	bxeq	lr
 80001d4:	e92d4010 	push	{r4, lr}
 80001d8:	e59f1010 	ldr	r1, [pc, #16]	; 80001f0 <frame_dummy+0x28>
 80001dc:	e59f0010 	ldr	r0, [pc, #16]	; 80001f4 <frame_dummy+0x2c>
 80001e0:	e1a00000 	nop			; (mov r0, r0)
 80001e4:	e8bd4010 	pop	{r4, lr}
 80001e8:	e12fff1e 	bx	lr
 80001ec:	00000000 	andeq	r0, r0, r0
 80001f0:	20000438 	andcs	r0, r0, r8, lsr r4
 80001f4:	0800083c 	stmdaeq	r0, {r2, r3, r4, r5, fp}

080001f8 <_stack_init>:
 80001f8:	e10f4000 	mrs	r4, CPSR
 80001fc:	e314000f 	tst	r4, #15
 8000200:	0a00001c 	beq	8000278 <_stack_init+0x80>
 8000204:	e1a0300d 	mov	r3, sp
 8000208:	e3a010d1 	mov	r1, #209	; 0xd1
 800020c:	e121f001 	msr	CPSR_c, r1
 8000210:	e1a0d003 	mov	sp, r3
 8000214:	e24daa01 	sub	sl, sp, #4096	; 0x1000
 8000218:	e1a0300a 	mov	r3, sl
 800021c:	e3a010d7 	mov	r1, #215	; 0xd7
 8000220:	e121f001 	msr	CPSR_c, r1
 8000224:	e1a0d003 	mov	sp, r3
 8000228:	e2433a01 	sub	r3, r3, #4096	; 0x1000
 800022c:	e3a010db 	mov	r1, #219	; 0xdb
 8000230:	e121f001 	msr	CPSR_c, r1
 8000234:	e1a0d003 	mov	sp, r3
 8000238:	e2433a01 	sub	r3, r3, #4096	; 0x1000
 800023c:	e3a010d2 	mov	r1, #210	; 0xd2
 8000240:	e121f001 	msr	CPSR_c, r1
 8000244:	e1a0d003 	mov	sp, r3
 8000248:	e2433a02 	sub	r3, r3, #8192	; 0x2000
 800024c:	e3a010d3 	mov	r1, #211	; 0xd3
 8000250:	e121f001 	msr	CPSR_c, r1
 8000254:	e1a0d003 	mov	sp, r3
 8000258:	e2433902 	sub	r3, r3, #32768	; 0x8000
 800025c:	e3c330ff 	bic	r3, r3, #255	; 0xff
 8000260:	e3c33cff 	bic	r3, r3, #65280	; 0xff00
 8000264:	e3a010df 	mov	r1, #223	; 0xdf
 8000268:	e121f001 	msr	CPSR_c, r1
 800026c:	e1a0d003 	mov	sp, r3
 8000270:	e38440c0 	orr	r4, r4, #192	; 0xc0
 8000274:	e121f004 	msr	CPSR_c, r4
 8000278:	e243a801 	sub	sl, r3, #65536	; 0x10000
 800027c:	e12fff1e 	bx	lr

08000280 <_mainCRTStartup>:
 8000280:	e59f3094 	ldr	r3, [pc, #148]	; 800031c <_mainCRTStartup+0x9c>
 8000284:	e3530000 	cmp	r3, #0
 8000288:	059f3080 	ldreq	r3, [pc, #128]	; 8000310 <_mainCRTStartup+0x90>
 800028c:	e1a0d003 	mov	sp, r3
 8000290:	ebffffd8 	bl	80001f8 <_stack_init>
 8000294:	e3b01000 	movs	r1, #0
 8000298:	e1a0b001 	mov	fp, r1
 800029c:	e1a07001 	mov	r7, r1
 80002a0:	e59f0078 	ldr	r0, [pc, #120]	; 8000320 <_mainCRTStartup+0xa0>
 80002a4:	e59f2078 	ldr	r2, [pc, #120]	; 8000324 <_mainCRTStartup+0xa4>
 80002a8:	e0522000 	subs	r2, r2, r0
 80002ac:	eb000059 	bl	8000418 <memset>
 80002b0:	e59f305c 	ldr	r3, [pc, #92]	; 8000314 <_mainCRTStartup+0x94>
 80002b4:	e3530000 	cmp	r3, #0
 80002b8:	0a000001 	beq	80002c4 <_mainCRTStartup+0x44>
 80002bc:	e1a0e00f 	mov	lr, pc
 80002c0:	e1a0f003 	mov	pc, r3
 80002c4:	e59f304c 	ldr	r3, [pc, #76]	; 8000318 <_mainCRTStartup+0x98>
 80002c8:	e3530000 	cmp	r3, #0
 80002cc:	0a000001 	beq	80002d8 <_mainCRTStartup+0x58>
 80002d0:	e1a0e00f 	mov	lr, pc
 80002d4:	e1a0f003 	mov	pc, r3
 80002d8:	e3b00000 	movs	r0, #0
 80002dc:	e3b01000 	movs	r1, #0
 80002e0:	e1b04000 	movs	r4, r0
 80002e4:	e1b05001 	movs	r5, r1
 80002e8:	e59f0038 	ldr	r0, [pc, #56]	; 8000328 <_mainCRTStartup+0xa8>
 80002ec:	e3500000 	cmp	r0, #0
 80002f0:	0a000001 	beq	80002fc <_mainCRTStartup+0x7c>
 80002f4:	e59f0030 	ldr	r0, [pc, #48]	; 800032c <_mainCRTStartup+0xac>
 80002f8:	eb0000e5 	bl	8000694 <atexit>
 80002fc:	eb000023 	bl	8000390 <__libc_init_array>
 8000300:	e1b00004 	movs	r0, r4
 8000304:	e1b01005 	movs	r1, r5
 8000308:	fa000008 	blx	8000330 <main>
 800030c:	eb000012 	bl	800035c <exit>
 8000310:	00080000 	andeq	r0, r8, r0
	...
 8000320:	20000434 	andcs	r0, r0, r4, lsr r4
 8000324:	20000474 	andcs	r0, r0, r4, ror r4
 8000328:	08000694 	stmdaeq	r0, {r2, r4, r7, r9, sl}
 800032c:	080006b4 	stmdaeq	r0, {r2, r4, r5, r7, r9, sl}

08000330 <main>:
 8000330:	b480      	push	{r7}
 8000332:	af00      	add	r7, sp, #0
 8000334:	bf00      	nop
 8000336:	46bd      	mov	sp, r7
 8000338:	bc80      	pop	{r7}
 800033a:	4770      	bx	lr

0800033c <SystemInit>:
 800033c:	b480      	push	{r7}
 800033e:	af00      	add	r7, sp, #0
 8000340:	bf00      	nop
 8000342:	46bd      	mov	sp, r7
 8000344:	bc80      	pop	{r7}
 8000346:	4770      	bx	lr
 8000348:	080008d0 	stmdaeq	r0, {r4, r6, r7, fp}
 800034c:	20000000 	andcs	r0, r0, r0
 8000350:	20000434 	andcs	r0, r0, r4, lsr r4
 8000354:	20000434 	andcs	r0, r0, r4, lsr r4
 8000358:	20000474 	andcs	r0, r0, r4, ror r4

0800035c <exit>:
 800035c:	e92d4010 	push	{r4, lr}
 8000360:	e3a01000 	mov	r1, #0
 8000364:	e1a04000 	mov	r4, r0
 8000368:	eb00007b 	bl	800055c <__call_exitprocs>
 800036c:	e59f3018 	ldr	r3, [pc, #24]	; 800038c <exit+0x30>
 8000370:	e5930000 	ldr	r0, [r3]
 8000374:	e590303c 	ldr	r3, [r0, #60]	; 0x3c
 8000378:	e3530000 	cmp	r3, #0
 800037c:	11a0e00f 	movne	lr, pc
 8000380:	112fff13 	bxne	r3
 8000384:	e1a00004 	mov	r0, r4
 8000388:	eb00012a 	bl	8000838 <_exit>
 800038c:	080008b8 	stmdaeq	r0, {r3, r4, r5, r7, fp}

08000390 <__libc_init_array>:
 8000390:	e92d4070 	push	{r4, r5, r6, lr}
 8000394:	e59f606c 	ldr	r6, [pc, #108]	; 8000408 <__libc_init_array+0x78>
 8000398:	e59f506c 	ldr	r5, [pc, #108]	; 800040c <__libc_init_array+0x7c>
 800039c:	e0466005 	sub	r6, r6, r5
 80003a0:	e1b06146 	asrs	r6, r6, #2
 80003a4:	0a000007 	beq	80003c8 <__libc_init_array+0x38>
 80003a8:	e3a04000 	mov	r4, #0
 80003ac:	e2455004 	sub	r5, r5, #4
 80003b0:	e5b53004 	ldr	r3, [r5, #4]!
 80003b4:	e2844001 	add	r4, r4, #1
 80003b8:	e1a0e00f 	mov	lr, pc
 80003bc:	e12fff13 	bx	r3
 80003c0:	e1560004 	cmp	r6, r4
 80003c4:	1afffff9 	bne	80003b0 <__libc_init_array+0x20>
 80003c8:	e59f6040 	ldr	r6, [pc, #64]	; 8000410 <__libc_init_array+0x80>
 80003cc:	e59f5040 	ldr	r5, [pc, #64]	; 8000414 <__libc_init_array+0x84>
 80003d0:	e0466005 	sub	r6, r6, r5
 80003d4:	eb000119 	bl	8000840 <_init>
 80003d8:	e1b06146 	asrs	r6, r6, #2
 80003dc:	0a000007 	beq	8000400 <__libc_init_array+0x70>
 80003e0:	e3a04000 	mov	r4, #0
 80003e4:	e2455004 	sub	r5, r5, #4
 80003e8:	e5b53004 	ldr	r3, [r5, #4]!
 80003ec:	e2844001 	add	r4, r4, #1
 80003f0:	e1a0e00f 	mov	lr, pc
 80003f4:	e12fff13 	bx	r3
 80003f8:	e1560004 	cmp	r6, r4
 80003fc:	1afffff9 	bne	80003e8 <__libc_init_array+0x58>
 8000400:	e8bd4070 	pop	{r4, r5, r6, lr}
 8000404:	e12fff1e 	bx	lr
 8000408:	080008c4 	stmdaeq	r0, {r2, r6, r7, fp}
 800040c:	080008c4 	stmdaeq	r0, {r2, r6, r7, fp}
 8000410:	080008cc 	stmdaeq	r0, {r2, r3, r6, r7, fp}
 8000414:	080008c4 	stmdaeq	r0, {r2, r6, r7, fp}

08000418 <memset>:
 8000418:	e3100003 	tst	r0, #3
 800041c:	0a000040 	beq	8000524 <memset+0x10c>
 8000420:	e3520000 	cmp	r2, #0
 8000424:	e2422001 	sub	r2, r2, #1
 8000428:	012fff1e 	bxeq	lr
 800042c:	e1a03000 	mov	r3, r0
 8000430:	e201c0ff 	and	ip, r1, #255	; 0xff
 8000434:	ea000002 	b	8000444 <memset+0x2c>
 8000438:	e2422001 	sub	r2, r2, #1
 800043c:	e3720001 	cmn	r2, #1
 8000440:	012fff1e 	bxeq	lr
 8000444:	e4c3c001 	strb	ip, [r3], #1
 8000448:	e3130003 	tst	r3, #3
 800044c:	1afffff9 	bne	8000438 <memset+0x20>
 8000450:	e3520003 	cmp	r2, #3
 8000454:	9a000028 	bls	80004fc <memset+0xe4>
 8000458:	e92d4030 	push	{r4, r5, lr}
 800045c:	e201e0ff 	and	lr, r1, #255	; 0xff
 8000460:	e18ee40e 	orr	lr, lr, lr, lsl #8
 8000464:	e352000f 	cmp	r2, #15
 8000468:	e18ee80e 	orr	lr, lr, lr, lsl #16
 800046c:	9a00002e 	bls	800052c <memset+0x114>
 8000470:	e242c010 	sub	ip, r2, #16
 8000474:	e3cc400f 	bic	r4, ip, #15
 8000478:	e2835020 	add	r5, r3, #32
 800047c:	e0855004 	add	r5, r5, r4
 8000480:	e1a0422c 	lsr	r4, ip, #4
 8000484:	e283c010 	add	ip, r3, #16
 8000488:	e50ce010 	str	lr, [ip, #-16]
 800048c:	e50ce00c 	str	lr, [ip, #-12]
 8000490:	e50ce008 	str	lr, [ip, #-8]
 8000494:	e50ce004 	str	lr, [ip, #-4]
 8000498:	e28cc010 	add	ip, ip, #16
 800049c:	e15c0005 	cmp	ip, r5
 80004a0:	1afffff8 	bne	8000488 <memset+0x70>
 80004a4:	e284c001 	add	ip, r4, #1
 80004a8:	e312000c 	tst	r2, #12
 80004ac:	e083c20c 	add	ip, r3, ip, lsl #4
 80004b0:	e202200f 	and	r2, r2, #15
 80004b4:	0a000018 	beq	800051c <memset+0x104>
 80004b8:	e2423004 	sub	r3, r2, #4
 80004bc:	e3c33003 	bic	r3, r3, #3
 80004c0:	e2833004 	add	r3, r3, #4
 80004c4:	e08c3003 	add	r3, ip, r3
 80004c8:	e48ce004 	str	lr, [ip], #4
 80004cc:	e153000c 	cmp	r3, ip
 80004d0:	1afffffc 	bne	80004c8 <memset+0xb0>
 80004d4:	e2022003 	and	r2, r2, #3
 80004d8:	e3520000 	cmp	r2, #0
 80004dc:	0a000004 	beq	80004f4 <memset+0xdc>
 80004e0:	e20110ff 	and	r1, r1, #255	; 0xff
 80004e4:	e0832002 	add	r2, r3, r2
 80004e8:	e4c31001 	strb	r1, [r3], #1
 80004ec:	e1520003 	cmp	r2, r3
 80004f0:	1afffffc 	bne	80004e8 <memset+0xd0>
 80004f4:	e8bd4030 	pop	{r4, r5, lr}
 80004f8:	e12fff1e 	bx	lr
 80004fc:	e3520000 	cmp	r2, #0
 8000500:	012fff1e 	bxeq	lr
 8000504:	e20110ff 	and	r1, r1, #255	; 0xff
 8000508:	e0832002 	add	r2, r3, r2
 800050c:	e4c31001 	strb	r1, [r3], #1
 8000510:	e1520003 	cmp	r2, r3
 8000514:	1afffffc 	bne	800050c <memset+0xf4>
 8000518:	e12fff1e 	bx	lr
 800051c:	e1a0300c 	mov	r3, ip
 8000520:	eaffffec 	b	80004d8 <memset+0xc0>
 8000524:	e1a03000 	mov	r3, r0
 8000528:	eaffffc8 	b	8000450 <memset+0x38>
 800052c:	e1a0c003 	mov	ip, r3
 8000530:	eaffffe0 	b	80004b8 <memset+0xa0>

08000534 <register_fini>:
 8000534:	e59f3018 	ldr	r3, [pc, #24]	; 8000554 <register_fini+0x20>
 8000538:	e3530000 	cmp	r3, #0
 800053c:	012fff1e 	bxeq	lr
 8000540:	e92d4010 	push	{r4, lr}
 8000544:	e59f000c 	ldr	r0, [pc, #12]	; 8000558 <register_fini+0x24>
 8000548:	eb000051 	bl	8000694 <atexit>
 800054c:	e8bd4010 	pop	{r4, lr}
 8000550:	e12fff1e 	bx	lr
 8000554:	00000000 	andeq	r0, r0, r0
 8000558:	080006b4 	stmdaeq	r0, {r2, r4, r5, r7, r9, sl}

0800055c <__call_exitprocs>:
 800055c:	e92d4ff0 	push	{r4, r5, r6, r7, r8, r9, sl, fp, lr}
 8000560:	e1a0b000 	mov	fp, r0
 8000564:	e59f3120 	ldr	r3, [pc, #288]	; 800068c <__call_exitprocs+0x130>
 8000568:	e24dd00c 	sub	sp, sp, #12
 800056c:	e5930000 	ldr	r0, [r3]
 8000570:	e1a07001 	mov	r7, r1
 8000574:	e58db004 	str	fp, [sp, #4]
 8000578:	eb000063 	bl	800070c <__retarget_lock_acquire_recursive>
 800057c:	e59f310c 	ldr	r3, [pc, #268]	; 8000690 <__call_exitprocs+0x134>
 8000580:	e5938000 	ldr	r8, [r3]
 8000584:	e5986148 	ldr	r6, [r8, #328]	; 0x148
 8000588:	e3560000 	cmp	r6, #0
 800058c:	0a000028 	beq	8000634 <__call_exitprocs+0xd8>
 8000590:	e3a09001 	mov	r9, #1
 8000594:	e3a0a000 	mov	sl, #0
 8000598:	e5964004 	ldr	r4, [r6, #4]
 800059c:	e2545001 	subs	r5, r4, #1
 80005a0:	4a000023 	bmi	8000634 <__call_exitprocs+0xd8>
 80005a4:	e2844001 	add	r4, r4, #1
 80005a8:	e0864104 	add	r4, r6, r4, lsl #2
 80005ac:	ea000003 	b	80005c0 <__call_exitprocs+0x64>
 80005b0:	e2455001 	sub	r5, r5, #1
 80005b4:	e3750001 	cmn	r5, #1
 80005b8:	e2444004 	sub	r4, r4, #4
 80005bc:	0a00001c 	beq	8000634 <__call_exitprocs+0xd8>
 80005c0:	e3570000 	cmp	r7, #0
 80005c4:	0a000002 	beq	80005d4 <__call_exitprocs+0x78>
 80005c8:	e5943100 	ldr	r3, [r4, #256]	; 0x100
 80005cc:	e1530007 	cmp	r3, r7
 80005d0:	1afffff6 	bne	80005b0 <__call_exitprocs+0x54>
 80005d4:	e5963004 	ldr	r3, [r6, #4]
 80005d8:	e5942000 	ldr	r2, [r4]
 80005dc:	e2433001 	sub	r3, r3, #1
 80005e0:	e1530005 	cmp	r3, r5
 80005e4:	05865004 	streq	r5, [r6, #4]
 80005e8:	1584a000 	strne	sl, [r4]
 80005ec:	e3520000 	cmp	r2, #0
 80005f0:	0affffee 	beq	80005b0 <__call_exitprocs+0x54>
 80005f4:	e5963188 	ldr	r3, [r6, #392]	; 0x188
 80005f8:	e1a01519 	lsl	r1, r9, r5
 80005fc:	e1110003 	tst	r1, r3
 8000600:	e596b004 	ldr	fp, [r6, #4]
 8000604:	1a000010 	bne	800064c <__call_exitprocs+0xf0>
 8000608:	e1a0e00f 	mov	lr, pc
 800060c:	e12fff12 	bx	r2
 8000610:	e5962004 	ldr	r2, [r6, #4]
 8000614:	e152000b 	cmp	r2, fp
 8000618:	1a000015 	bne	8000674 <__call_exitprocs+0x118>
 800061c:	e5983148 	ldr	r3, [r8, #328]	; 0x148
 8000620:	e1530006 	cmp	r3, r6
 8000624:	0affffe1 	beq	80005b0 <__call_exitprocs+0x54>
 8000628:	e1a06003 	mov	r6, r3
 800062c:	e3560000 	cmp	r6, #0
 8000630:	1affffd8 	bne	8000598 <__call_exitprocs+0x3c>
 8000634:	e59f3050 	ldr	r3, [pc, #80]	; 800068c <__call_exitprocs+0x130>
 8000638:	e5930000 	ldr	r0, [r3]
 800063c:	eb000038 	bl	8000724 <__retarget_lock_release_recursive>
 8000640:	e28dd00c 	add	sp, sp, #12
 8000644:	e8bd4ff0 	pop	{r4, r5, r6, r7, r8, r9, sl, fp, lr}
 8000648:	e12fff1e 	bx	lr
 800064c:	e596018c 	ldr	r0, [r6, #396]	; 0x18c
 8000650:	e1110000 	tst	r1, r0
 8000654:	1a000008 	bne	800067c <__call_exitprocs+0x120>
 8000658:	e59d0004 	ldr	r0, [sp, #4]
 800065c:	e5941080 	ldr	r1, [r4, #128]	; 0x80
 8000660:	e1a0e00f 	mov	lr, pc
 8000664:	e12fff12 	bx	r2
 8000668:	e5962004 	ldr	r2, [r6, #4]
 800066c:	e152000b 	cmp	r2, fp
 8000670:	0affffe9 	beq	800061c <__call_exitprocs+0xc0>
 8000674:	e5986148 	ldr	r6, [r8, #328]	; 0x148
 8000678:	eaffffeb 	b	800062c <__call_exitprocs+0xd0>
 800067c:	e5940080 	ldr	r0, [r4, #128]	; 0x80
 8000680:	e1a0e00f 	mov	lr, pc
 8000684:	e12fff12 	bx	r2
 8000688:	eaffffe0 	b	8000610 <__call_exitprocs+0xb4>
 800068c:	20000430 	andcs	r0, r0, r0, lsr r4
 8000690:	080008b8 	stmdaeq	r0, {r3, r4, r5, r7, fp}

08000694 <atexit>:
 8000694:	e3a03000 	mov	r3, #0
 8000698:	e92d4010 	push	{r4, lr}
 800069c:	e1a01000 	mov	r1, r0
 80006a0:	e1a02003 	mov	r2, r3
 80006a4:	e1a00003 	mov	r0, r3
 80006a8:	eb00001e 	bl	8000728 <__register_exitproc>
 80006ac:	e8bd4010 	pop	{r4, lr}
 80006b0:	e12fff1e 	bx	lr

080006b4 <__libc_fini_array>:
 80006b4:	e92d4070 	push	{r4, r5, r6, lr}
 80006b8:	e59f5030 	ldr	r5, [pc, #48]	; 80006f0 <__libc_fini_array+0x3c>
 80006bc:	e59f4030 	ldr	r4, [pc, #48]	; 80006f4 <__libc_fini_array+0x40>
 80006c0:	e0454004 	sub	r4, r5, r4
 80006c4:	e1b04144 	asrs	r4, r4, #2
 80006c8:	0a000005 	beq	80006e4 <__libc_fini_array+0x30>
 80006cc:	e5353004 	ldr	r3, [r5, #-4]!
 80006d0:	e2444001 	sub	r4, r4, #1
 80006d4:	e1a0e00f 	mov	lr, pc
 80006d8:	e12fff13 	bx	r3
 80006dc:	e3540000 	cmp	r4, #0
 80006e0:	1afffff9 	bne	80006cc <__libc_fini_array+0x18>
 80006e4:	eb00005b 	bl	8000858 <_fini>
 80006e8:	e8bd4070 	pop	{r4, r5, r6, lr}
 80006ec:	e12fff1e 	bx	lr
 80006f0:	080008d0 	stmdaeq	r0, {r4, r6, r7, fp}
 80006f4:	080008cc 	stmdaeq	r0, {r2, r3, r6, r7, fp}

080006f8 <__retarget_lock_init>:
 80006f8:	e12fff1e 	bx	lr

080006fc <__retarget_lock_init_recursive>:
 80006fc:	e12fff1e 	bx	lr

08000700 <__retarget_lock_close>:
 8000700:	e12fff1e 	bx	lr

08000704 <__retarget_lock_close_recursive>:
 8000704:	e12fff1e 	bx	lr

08000708 <__retarget_lock_acquire>:
 8000708:	e12fff1e 	bx	lr

0800070c <__retarget_lock_acquire_recursive>:
 800070c:	e12fff1e 	bx	lr

08000710 <__retarget_lock_try_acquire>:
 8000710:	e3a00001 	mov	r0, #1
 8000714:	e12fff1e 	bx	lr

08000718 <__retarget_lock_try_acquire_recursive>:
 8000718:	e3a00001 	mov	r0, #1
 800071c:	e12fff1e 	bx	lr

08000720 <__retarget_lock_release>:
 8000720:	e12fff1e 	bx	lr

08000724 <__retarget_lock_release_recursive>:
 8000724:	e12fff1e 	bx	lr

08000728 <__register_exitproc>:
 8000728:	e92d41f0 	push	{r4, r5, r6, r7, r8, lr}
 800072c:	e59f80a8 	ldr	r8, [pc, #168]	; 80007dc <__register_exitproc+0xb4>
 8000730:	e1a04000 	mov	r4, r0
 8000734:	e5980000 	ldr	r0, [r8]
 8000738:	e1a06003 	mov	r6, r3
 800073c:	e1a05001 	mov	r5, r1
 8000740:	e1a07002 	mov	r7, r2
 8000744:	ebfffff0 	bl	800070c <__retarget_lock_acquire_recursive>
 8000748:	e59f3090 	ldr	r3, [pc, #144]	; 80007e0 <__register_exitproc+0xb8>
 800074c:	e5933000 	ldr	r3, [r3]
 8000750:	e593c148 	ldr	ip, [r3, #328]	; 0x148
 8000754:	e35c0000 	cmp	ip, #0
 8000758:	0283cf53 	addeq	ip, r3, #332	; 0x14c
 800075c:	e59ce004 	ldr	lr, [ip, #4]
 8000760:	0583c148 	streq	ip, [r3, #328]	; 0x148
 8000764:	e35e001f 	cmp	lr, #31
 8000768:	ca000017 	bgt	80007cc <__register_exitproc+0xa4>
 800076c:	e3540000 	cmp	r4, #0
 8000770:	1a000008 	bne	8000798 <__register_exitproc+0x70>
 8000774:	e28e3001 	add	r3, lr, #1
 8000778:	e28ee002 	add	lr, lr, #2
 800077c:	e58c3004 	str	r3, [ip, #4]
 8000780:	e5980000 	ldr	r0, [r8]
 8000784:	e78c510e 	str	r5, [ip, lr, lsl #2]
 8000788:	ebffffe5 	bl	8000724 <__retarget_lock_release_recursive>
 800078c:	e3a00000 	mov	r0, #0
 8000790:	e8bd41f0 	pop	{r4, r5, r6, r7, r8, lr}
 8000794:	e12fff1e 	bx	lr
 8000798:	e3a03001 	mov	r3, #1
 800079c:	e08c110e 	add	r1, ip, lr, lsl #2
 80007a0:	e5817088 	str	r7, [r1, #136]	; 0x88
 80007a4:	e59c2188 	ldr	r2, [ip, #392]	; 0x188
 80007a8:	e1a03e13 	lsl	r3, r3, lr
 80007ac:	e1822003 	orr	r2, r2, r3
 80007b0:	e58c2188 	str	r2, [ip, #392]	; 0x188
 80007b4:	e5816108 	str	r6, [r1, #264]	; 0x108
 80007b8:	e3540002 	cmp	r4, #2
 80007bc:	059c218c 	ldreq	r2, [ip, #396]	; 0x18c
 80007c0:	01823003 	orreq	r3, r2, r3
 80007c4:	058c318c 	streq	r3, [ip, #396]	; 0x18c
 80007c8:	eaffffe9 	b	8000774 <__register_exitproc+0x4c>
 80007cc:	e5980000 	ldr	r0, [r8]
 80007d0:	ebffffd3 	bl	8000724 <__retarget_lock_release_recursive>
 80007d4:	e3e00000 	mvn	r0, #0
 80007d8:	eaffffec 	b	8000790 <__register_exitproc+0x68>
 80007dc:	20000430 	andcs	r0, r0, r0, lsr r4
 80007e0:	080008b8 	stmdaeq	r0, {r3, r4, r5, r7, fp}

080007e4 <Reset_Handler>:
 80007e4:	f8df d034 	ldr.w	sp, [pc, #52]	; 800081c <LoopFillZerobss+0x14>
 80007e8:	2100      	movs	r1, #0
 80007ea:	e003      	b.n	80007f4 <LoopCopyDataInit>

080007ec <CopyDataInit>:
 80007ec:	4b0c      	ldr	r3, [pc, #48]	; (8000820 <LoopFillZerobss+0x18>)
 80007ee:	585b      	ldr	r3, [r3, r1]
 80007f0:	5043      	str	r3, [r0, r1]
 80007f2:	3104      	adds	r1, #4

080007f4 <LoopCopyDataInit>:
 80007f4:	480b      	ldr	r0, [pc, #44]	; (8000824 <LoopFillZerobss+0x1c>)
 80007f6:	4b0c      	ldr	r3, [pc, #48]	; (8000828 <LoopFillZerobss+0x20>)
 80007f8:	1842      	adds	r2, r0, r1
 80007fa:	429a      	cmp	r2, r3
 80007fc:	d3f6      	bcc.n	80007ec <CopyDataInit>
 80007fe:	4a0b      	ldr	r2, [pc, #44]	; (800082c <LoopFillZerobss+0x24>)
 8000800:	e002      	b.n	8000808 <LoopFillZerobss>

08000802 <FillZerobss>:
 8000802:	2300      	movs	r3, #0
 8000804:	f842 3b04 	str.w	r3, [r2], #4

08000808 <LoopFillZerobss>:
 8000808:	4b09      	ldr	r3, [pc, #36]	; (8000830 <LoopFillZerobss+0x28>)
 800080a:	429a      	cmp	r2, r3
 800080c:	d3f9      	bcc.n	8000802 <FillZerobss>
 800080e:	f7ff fd95 	bl	800033c <SystemInit>
 8000812:	f7ff fdbd 	bl	8000390 <__libc_init_array>
 8000816:	f7ff fd8b 	bl	8000330 <main>
 800081a:	4770      	bx	lr
 800081c:	20020000 	andcs	r0, r2, r0
 8000820:	080008d0 	stmdaeq	r0, {r4, r6, r7, fp}
 8000824:	20000000 	andcs	r0, r0, r0
 8000828:	20000434 	andcs	r0, r0, r4, lsr r4
 800082c:	20000434 	andcs	r0, r0, r4, lsr r4
 8000830:	20000474 	andcs	r0, r0, r4, ror r4

08000834 <ADC_IRQHandler>:
 8000834:	e7fe      	b.n	8000834 <ADC_IRQHandler>
	...

08000838 <_exit>:
 8000838:	eafffffe 	b	8000838 <_exit>

0800083c <__EH_FRAME_BEGIN__>:
 800083c:	00000000 	andeq	r0, r0, r0

08000840 <_init>:
 8000840:	e1a0c00d 	mov	ip, sp
 8000844:	e92ddff8 	push	{r3, r4, r5, r6, r7, r8, r9, sl, fp, ip, lr, pc}
 8000848:	e24cb004 	sub	fp, ip, #4
 800084c:	e24bd028 	sub	sp, fp, #40	; 0x28
 8000850:	e89d6ff0 	ldm	sp, {r4, r5, r6, r7, r8, r9, sl, fp, sp, lr}
 8000854:	e12fff1e 	bx	lr

08000858 <_fini>:
 8000858:	e1a0c00d 	mov	ip, sp
 800085c:	e92ddff8 	push	{r3, r4, r5, r6, r7, r8, r9, sl, fp, ip, lr, pc}
 8000860:	e24cb004 	sub	fp, ip, #4
 8000864:	e24bd028 	sub	sp, fp, #40	; 0x28
 8000868:	e89d6ff0 	ldm	sp, {r4, r5, r6, r7, r8, r9, sl, fp, sp, lr}
 800086c:	e12fff1e 	bx	lr

Disassembly of section .ARM:

080008bc <__exidx_start>:
 80008bc:	7ffff93c 	svcvc	0x00fff93c
 80008c0:	00000001 	andeq	r0, r0, r1
